L251 LINKER/LOCATER V4.66.93.0                                                          09/21/2022  15:24:00  PAGE 1


L251 LINKER/LOCATER V4.66.93.0, INVOKED BY:
D:\SDK\KEIL_V5\C251\BIN\L251.EXE .\Objects\croutine.obj, .\Objects\event_groups.obj, .\Objects\list.obj, .\Objects\queue
>> .obj, .\Objects\stream_buffer.obj, .\Objects\tasks.obj, .\Objects\timers.obj, .\Objects\port.obj, .\Objects\heap_1.ob
>> j, .\Objects\DebugPrintf.obj, .\Objects\putchar.obj, .\Objects\main.obj TO .\Objects\FreeRTOS_Demo PRINT (.\Listings\
>> FreeRTOS_Demo.map) CASE DISABLEWARNING (16, 57) REMOVEUNUSED CLASSES (EDATA (0X0-0XFFF), HDATA (0X0-0XFFF))


CPU MODE:     251 SOURCE MODE
INTR FRAME:   4 BYTES SAVED ON INTERRUPT
MEMORY MODEL: XSMALL


INPUT MODULES INCLUDED:
  .\Objects\croutine.obj (croutine)
         COMMENT TYPE 0: C251 V5.60.0
  .\Objects\event_groups.obj (event_groups)
         COMMENT TYPE 0: C251 V5.60.0
  .\Objects\list.obj (list)
         COMMENT TYPE 0: C251 V5.60.0
  .\Objects\queue.obj (queue)
         COMMENT TYPE 0: C251 V5.60.0
  .\Objects\stream_buffer.obj (stream_buffer)
         COMMENT TYPE 0: C251 V5.60.0
  .\Objects\tasks.obj (tasks)
         COMMENT TYPE 0: C251 V5.60.0
  .\Objects\timers.obj (timers)
         COMMENT TYPE 0: C251 V5.60.0
  .\Objects\port.obj (port)
         COMMENT TYPE 0: A251 V4.69.13.0
  .\Objects\heap_1.obj (heap_1)
         COMMENT TYPE 0: C251 V5.60.0
  .\Objects\DebugPrintf.obj (DebugPrintf)
         COMMENT TYPE 0: C251 V5.60.0
  .\Objects\putchar.obj (putchar)
         COMMENT TYPE 0: C251 V5.60.0
  .\Objects\main.obj (main)
         COMMENT TYPE 0: C251 V5.60.0
  D:\SDK\KEIL_V5\C251\LIB\C2SXS.LIB (?C_START)
         COMMENT TYPE 0: A251 V4.69.6.0
  D:\SDK\KEIL_V5\C251\LIB\C2SXS.LIB (?C?INITEDATA)
         COMMENT TYPE 0: A251 V4.69.6.0
  D:\SDK\KEIL_V5\C251\LIB\C2SXS.LIB (PRINTF)
         COMMENT TYPE 0: A251 V4.69.6.0
  D:\SDK\KEIL_V5\C251\LIB\C2SXS.LIB (memcpy)
         COMMENT TYPE 0: C251 V5.58.7
  D:\SDK\KEIL_V5\C251\LIB\C2SXS.LIB (memset)
         COMMENT TYPE 0: C251 V5.58.7
  D:\SDK\KEIL_V5\C251\LIB\C2SXS.LIB (?C?INITEDATA_END)
         COMMENT TYPE 0: A251 V4.69.6.0
  D:\SDK\KEIL_V5\C251\LIB\C2SXS.LIB (?C?PRNFMT)
         COMMENT TYPE 0: A251 V4.69.6.0


ACTIVE MEMORY CLASSES OF MODULE:  .\Objects\FreeRTOS_Demo (croutine)

BASE        START       END         USED      MEMORY CLASS
==========================================================
000000H     000000H     000FFFH     000BC7H   EDATA
000000H     000000H     000FFFH               HDATA
FF0000H     FF0000H     FFFFFFH     000726H   CODE
000000H     FF0000H     FFFFFFH     00006CH   HCONST
000000H     000000H     00007FH     00000BH   DATA
FF0000H     FF0000H     FFFFFFH     000004H   CONST


MEMORY MAP OF MODULE:  .\Objects\FreeRTOS_Demo (croutine)
L251 LINKER/LOCATER V4.66.93.0                                                        09/21/2022  15:24:00  PAGE 2




START     STOP      LENGTH    ALIGN  RELOC    MEMORY CLASS   SEGMENT NAME
=========================================================================
000000H   000007H   000008H   ---    AT..     DATA           "REG BANK 0"
000008H   00000AH   000003H   BYTE   UNIT     DATA           ?DT?PORT
00000BH   000810H   000806H   BYTE   UNIT     EDATA          ?ED?HEAP_1
000811H   000AA9H   000299H   BYTE   UNIT     EDATA          ?ED?TASKS
000AAAH   000AD1H   000028H   BYTE   UNIT     EDATA          _EDATA_GROUP_
000AD2H   000BD1H   000100H   BYTE   UNIT     EDATA          ?STACK
000BD2H   FEFFFFH   FEF42EH   ---    ---      **GAP**
FF0000H   FF0002H   000003H   ---    OFFS..   CODE           ?CO?start251?4
FF0003H   FF0006H   000004H   BYTE   UNIT     CONST          ?CO?PRINTF
FF0007H   FF000AH   000004H   ---    ---      **GAP**
FF000BH   FF000DH   000003H   ---    OFFS..   CODE           ?CO?port?8
FF000EH   FF030DH   000300H   BYTE   UNIT     CODE           ?C?LIB_CODE
FF030EH   FF0377H   00006AH   BYTE   UNIT     CODE           ?PR?VTIMER0ISR?_?PORT
FF0378H   FF038AH   000013H   BYTE   UNIT     CODE           ?C_C51STARTUP
FF038BH   FF03B3H   000029H   BYTE   UNIT     CODE           ?C_C51STARTUP?2
FF03B4H   FF03B6H   000003H   BYTE   UNIT     CODE           ?C_C51STARTUP?3
FF03B7H   FF0416H   000060H   BYTE   UNIT     HCONST         ?C_INITEDATA
FF0417H   FF041CH   000006H   BYTE   UNIT     HCONST         ?HC?TASKS
FF041DH   FF0422H   000006H   BYTE   UNIT     HCONST         ?HC?MAIN
FF0423H   FF0450H   00002EH   BYTE   INSEG    CODE           ?PR?PRVRESETNEXTTASKUNBLOCKTIME?_?TASKS
FF0451H   FF0697H   000247H   BYTE   INSEG    CODE           ?PR?XTASKINCREMENTTICK?_?TASKS
FF0698H   FF0721H   00008AH   BYTE   INSEG    CODE           ?PR?VTASKSWITCHCONTEXT?_?TASKS
FF0722H   FF072DH   00000CH   BYTE   INSEG    CODE           ?PR?UARTPUTC?_?DEBUGPRINTF
FF072EH   FF0738H   00000BH   BYTE   INSEG    CODE           ?PR?PUTCHAR?PUTCHAR
FF0739H   FF074FH   000017H   BYTE   INSEG    CODE           ?PR?DEBUGPRINTFINIT?_?DEBUGPRINTF
FF0750H   FF075FH   000010H   BYTE   INSEG    CODE           ?PR?MAIN?MAIN
FF0760H   FF0799H   00003AH   BYTE   INSEG    CODE           ?PR?VSYSTEMINIT?_?MAIN

* * * * * * * * *   R E M O V E D     S E G M E N T S   * * * * * * * *
   *DEL*:           000027H   BYTE   INSEG    CODE           ?PR?XEVENTGROUPCLEARBITS?_?EVENT_GROUPS
   *DEL*:           000003H   BYTE   INSEG    CODE           ?PR?VEVENTGROUPCLEARBITSCALLBACK?_?EVENT_GROUPS
   *DEL*:           00015EH   BYTE   INSEG    CODE           ?PR?XEVENTGROUPSYNC?_?EVENT_GROUPS
   *DEL*:           00019FH   BYTE   INSEG    CODE           ?PR?XEVENTGROUPWAITBITS?_?EVENT_GROUPS
   *DEL*:           000025H   BYTE   INSEG    CODE           ?PR?PRVTESTWAITCONDITION?_?EVENT_GROUPS
   *DEL*:           000008H   BYTE   INSEG    CODE           ?PR?XEVENTGROUPGETBITSFROMISR?_?EVENT_GROUPS
   *DEL*:           00019CH   BYTE   INSEG    CODE           ?PR?XEVENTGROUPSETBITS?_?EVENT_GROUPS
   *DEL*:           000003H   BYTE   INSEG    CODE           ?PR?VEVENTGROUPSETBITSCALLBACK?_?EVENT_GROUPS
   *DEL*:           000041H   BYTE   INSEG    CODE           ?PR?VEVENTGROUPDELETE?_?EVENT_GROUPS
   *DEL*:           000026H   BYTE   INSEG    CODE           ?PR?XEVENTGROUPCREATE?_?EVENT_GROUPS
   *DEL*:           00006BH   BYTE   INSEG    CODE           ?PR?UXLISTREMOVE?_?LIST
   *DEL*:           000080H   BYTE   INSEG    CODE           ?PR?VLISTINSERT?_?LIST
   *DEL*:           00004CH   BYTE   INSEG    CODE           ?PR?VLISTINSERTEND?_?LIST
   *DEL*:           00003DH   BYTE   INSEG    CODE           ?PR?VLISTINITIALISE?_?LIST
   *DEL*:           00000DH   BYTE   INSEG    CODE           ?PR?VLISTINITIALISEITEM?_?LIST
   *DEL*:           000028H   BYTE   INSEG    CODE           ?PR?PRVINITIALISEMUTEX?_?QUEUE
   *DEL*:           00016DH   BYTE   INSEG    CODE           ?PR?XQUEUEPEEK?_?QUEUE
   *DEL*:           000009H   BYTE   INSEG    CODE           ?PR?UXQUEUEMESSAGESWAITING?_?QUEUE
   *DEL*:           000049H   BYTE   INSEG    CODE           ?PR?XQUEUEPEEKFROMISR?_?QUEUE
   *DEL*:           00005FH   BYTE   INSEG    CODE           ?PR?PRVCOPYDATAFROMQUEUE?_?QUEUE
   *DEL*:           000007H   BYTE   INSEG    CODE           ?PR?UXQUEUEMESSAGESWAITINGFROMISR?_?QUEUE
   *DEL*:           000092H   BYTE   INSEG    CODE           ?PR?XQUEUEGIVEFROMISR?_?QUEUE
   *DEL*:           00007AH   BYTE   INSEG    CODE           ?PR?XQUEUEGENERICCREATE?_?QUEUE
   *DEL*:           00004DH   BYTE   INSEG    CODE           ?PR?PRVINITIALISENEWQUEUE?_?QUEUE
   *DEL*:           000014H   BYTE   INSEG    CODE           ?PR?PRVISQUEUEEMPTY?_?QUEUE
   *DEL*:           00014AH   BYTE   INSEG    CODE           ?PR?XQUEUESEMAPHORETAKE?_?QUEUE
   *DEL*:           000020H   BYTE   INSEG    CODE           ?PR?PRVISQUEUEFULL?_?QUEUE
   *DEL*:           00013EH   BYTE   INSEG    CODE           ?PR?PRVCOPYDATATOQUEUE?_?QUEUE
   *DEL*:           000151H   BYTE   INSEG    CODE           ?PR?XQUEUERECEIVE?_?QUEUE
   *DEL*:           00012AH   BYTE   INSEG    CODE           ?PR?XQUEUEGENERICRESET?_?QUEUE
   *DEL*:           000082H   BYTE   INSEG    CODE           ?PR?XQUEUERECEIVEFROMISR?_?QUEUE
   *DEL*:           000140H   BYTE   INSEG    CODE           ?PR?XQUEUEGENERICSEND?_?QUEUE
L251 LINKER/LOCATER V4.66.93.0                                                        09/21/2022  15:24:00  PAGE 3


   *DEL*:           000085H   BYTE   INSEG    CODE           ?PR?PRVUNLOCKQUEUE?_?QUEUE
   *DEL*:           000003H   BYTE   INSEG    CODE           ?PR?VQUEUEDELETE?_?QUEUE
   *DEL*:           00007CH   BYTE   INSEG    CODE           ?PR?XQUEUEGENERICSENDFROMISR?_?QUEUE
   *DEL*:           000012H   BYTE   INSEG    CODE           ?PR?XQUEUEISQUEUEEMPTYFROMISR?_?QUEUE
   *DEL*:           00002AH   BYTE   INSEG    CODE           ?PR?PRVGETDISINHERITPRIORITYAFTERTIMEOUT?_?QUEUE
   *DEL*:           000015H   BYTE   INSEG    CODE           ?PR?UXQUEUESPACESAVAILABLE?_?QUEUE
   *DEL*:           000016H   BYTE   INSEG    CODE           ?PR?XQUEUEISQUEUEFULLFROMISR?_?QUEUE
   *DEL*:           000017H   BYTE   INSEG    CODE           ?PR?XQUEUECREATEMUTEX?_?QUEUE
   *DEL*:           000043H   BYTE   INSEG    CODE           ?PR?XSTREAMBUFFERSENDCOMPLETEDFROMISR?_?STREAM_BUFFER
   *DEL*:           00012CH   BYTE   INSEG    CODE           ?PR?XSTREAMBUFFERRECEIVE?_?STREAM_BUFFER
   *DEL*:           000093H   BYTE   INSEG    CODE           ?PR?PRVWRITEBYTESTOBUFFER?_?STREAM_BUFFER
   *DEL*:           0000B0H   BYTE   INSEG    CODE           ?PR?XSTREAMBUFFERRECEIVEFROMISR?_?STREAM_BUFFER
   *DEL*:           000015H   BYTE   INSEG    CODE           ?PR?XSTREAMBUFFERISEMPTY?_?STREAM_BUFFER
   *DEL*:           000092H   BYTE   INSEG    CODE           ?PR?PRVREADMESSAGEFROMBUFFER?_?STREAM_BUFFER
   *DEL*:           00002EH   BYTE   INSEG    CODE           ?PR?XSTREAMBUFFERISFULL?_?STREAM_BUFFER
   *DEL*:           000012H   BYTE   INSEG    CODE           ?PR?VSTREAMBUFFERDELETE?_?STREAM_BUFFER
   *DEL*:           000045H   BYTE   INSEG    CODE           ?PR?XSTREAMBUFFERNEXTMESSAGELENGTHBYTES?_?STREAM_BUFFER
   *DEL*:           000022H   BYTE   INSEG    CODE           ?PR?XSTREAMBUFFERSPACESAVAILABLE?_?STREAM_BUFFER
   *DEL*:           000043H   BYTE   INSEG    CODE           ?PR?XSTREAMBUFFERRECEIVECOMPLETEDFROMISR?_?STREAM_BUFFER
   *DEL*:           000022H   BYTE   INSEG    CODE           ?PR?XSTREAMBUFFERSETTRIGGERLEVEL?_?STREAM_BUFFER
   *DEL*:           00003DH   BYTE   INSEG    CODE           ?PR?XSTREAMBUFFERRESET?_?STREAM_BUFFER
   *DEL*:           000191H   BYTE   INSEG    CODE           ?PR?XSTREAMBUFFERSEND?_?STREAM_BUFFER
   *DEL*:           00007CH   BYTE   INSEG    CODE           ?PR?PRVWRITEMESSAGETOBUFFER?_?STREAM_BUFFER
   *DEL*:           000093H   BYTE   INSEG    CODE           ?PR?PRVREADBYTESFROMBUFFER?_?STREAM_BUFFER
   *DEL*:           000003H   BYTE   INSEG    CODE           ?PR?XSTREAMBUFFERBYTESAVAILABLE?_?STREAM_BUFFER
   *DEL*:           0000C1H   BYTE   INSEG    CODE           ?PR?XSTREAMBUFFERSENDFROMISR?_?STREAM_BUFFER
   *DEL*:           000072H   BYTE   INSEG    CODE           ?PR?XSTREAMBUFFERGENERICCREATE?_?STREAM_BUFFER
   *DEL*:           00003FH   BYTE   INSEG    CODE           ?PR?PRVINITIALISENEWSTREAMBUFFER?_?STREAM_BUFFER
   *DEL*:           000018H   BYTE   INSEG    CODE           ?PR?PRVBYTESINBUFFER?_?STREAM_BUFFER
   *DEL*:           00001FH   BYTE   INSEG    CODE           ?PR?VTASKDELAY?_?TASKS
   *DEL*:           000005H   BYTE   INSEG    CODE           ?PR?XTASKGETCURRENTTASKHANDLE?_?TASKS
   *DEL*:           0000C4H   BYTE   INSEG    CODE           ?PR?VTASKRESUME?_?TASKS
   *DEL*:           0000E6H   BYTE   INSEG    CODE           ?PR?PRVADDNEWTASKTOREADYLIST?_?TASKS
   *DEL*:           0000DDH   BYTE   INSEG    CODE           ?PR?PRVADDCURRENTTASKTODELAYEDLIST?_?TASKS
   *DEL*:           000081H   BYTE   INSEG    CODE           ?PR?VTASKPLACEONUNORDEREDEVENTLIST?_?TASKS
   *DEL*:           0000D2H   BYTE   INSEG    CODE           ?PR?XTASKRESUMEFROMISR?_?TASKS
   *DEL*:           000017H   BYTE   INSEG    CODE           ?PR?PRVDELETETCB?_?TASKS
   *DEL*:           00001AH   BYTE   INSEG    CODE           ?PR?VTASKSETTIMEOUTSTATE?_?TASKS
   *DEL*:           00000AH   BYTE   INSEG    CODE           ?PR?VTASKSUSPENDALL?_?TASKS
   *DEL*:           000017H   BYTE   INSEG    CODE           ?PR?UXTASKPRIORITYGET?_?TASKS
   *DEL*:           000013H   BYTE   INSEG    CODE           ?PR?PCTASKGETNAME?_?TASKS
   *DEL*:           000063H   BYTE   INSEG    CODE           ?PR?XTASKDELAYUNTIL?_?TASKS
   *DEL*:           0000DCH   BYTE   INSEG    CODE           ?PR?XTASKPRIORITYDISINHERIT?_?TASKS
   *DEL*:           00004FH   BYTE   INSEG    CODE           ?PR?PRVINITIALISETASKLISTS?_?TASKS
   *DEL*:           000013H   BYTE   INSEG    CODE           ?PR?UXTASKPRIORITYGETFROMISR?_?TASKS
   *DEL*:           0001F7H   BYTE   INSEG    CODE           ?PR?XTASKRESUMEALL?_?TASKS
   *DEL*:           00013FH   BYTE   INSEG    CODE           ?PR?VTASKPRIORITYSET?_?TASKS
   *DEL*:           00002BH   BYTE   INSEG    CODE           ?PR?UXTASKRESETEVENTITEMVALUE?_?TASKS
   *DEL*:           000045H   BYTE   INSEG    CODE           ?PR?ULTASKGENERICNOTIFYVALUECLEAR?_?TASKS
   *DEL*:           000180H   BYTE   INSEG    CODE           ?PR?PRVINITIALISENEWTASK?_?TASKS
   *DEL*:           00003EH   BYTE   INSEG    CODE           ?PR?PRVCHECKTASKSWAITINGTERMINATION?_?TASKS
   *DEL*:           0001E9H   BYTE   INSEG    CODE           ?PR?XTASKREMOVEFROMEVENTLIST?_?TASKS
   *DEL*:           000017H   BYTE   INSEG    CODE           ?PR?XTASKCATCHUPTICKS?_?TASKS
   *DEL*:           000030H   BYTE   INSEG    CODE           ?PR?XTASKGENERICNOTIFYSTATECLEAR?_?TASKS
   *DEL*:           00008BH   BYTE   INSEG    CODE           ?PR?ULTASKGENERICNOTIFYTAKE?_?TASKS
   *DEL*:           00003FH   BYTE   INSEG    CODE           ?PR?VTASKSTARTSCHEDULER?_?TASKS
   *DEL*:           000009H   BYTE   INSEG    CODE           ?PR?XTASKGETTICKCOUNT?_?TASKS
   *DEL*:           00000AH   BYTE   INSEG    CODE           ?PR?VTASKENDSCHEDULER?_?TASKS
   *DEL*:           00001CH   BYTE   INSEG    CODE           ?PR?PVTASKINCREMENTMUTEXHELDCOUNT?_?TASKS
   *DEL*:           0001B2H   BYTE   INSEG    CODE           ?PR?XTASKGENERICNOTIFY?_?TASKS
   *DEL*:           000016H   BYTE   INSEG    CODE           ?PR?VTASKINTERNALSETTIMEOUTSTATE?_?TASKS
   *DEL*:           000127H   BYTE   INSEG    CODE           ?PR?XTASKPRIORITYINHERIT?_?TASKS
   *DEL*:           000005H   BYTE   INSEG    CODE           ?PR?XTASKGETTICKCOUNTFROMISR?_?TASKS
   *DEL*:           000005H   BYTE   INSEG    CODE           ?PR?UXTASKGETNUMBEROFTASKS?_?TASKS
   *DEL*:           000228H   BYTE   INSEG    CODE           ?PR?XTASKGENERICNOTIFYFROMISR?_?TASKS
L251 LINKER/LOCATER V4.66.93.0                                                        09/21/2022  15:24:00  PAGE 4


   *DEL*:           000019H   BYTE   INSEG    CODE           ?PR?VTASKPLACEONEVENTLIST?_?TASKS
   *DEL*:           0001A2H   BYTE   INSEG    CODE           ?PR?VTASKGENERICNOTIFYGIVEFROMISR?_?TASKS
   *DEL*:           000084H   BYTE   INSEG    CODE           ?PR?VTASKDELETE?_?TASKS
   *DEL*:           00006DH   BYTE   INSEG    CODE           ?PR?XTASKCHECKFORTIMEOUT?_?TASKS
   *DEL*:           0000F3H   BYTE   INSEG    CODE           ?PR?XTASKGENERICNOTIFYWAIT?_?TASKS
   *DEL*:           0000B4H   BYTE   INSEG    CODE           ?PR?XTASKCREATE?_?TASKS
   *DEL*:           000177H   BYTE   INSEG    CODE           ?PR?VTASKREMOVEFROMUNORDEREDEVENTLIST?_?TASKS
   *DEL*:           000011H   BYTE   INSEG    CODE           ?PR?PRVIDLETASK?_?TASKS
   *DEL*:           000007H   BYTE   INSEG    CODE           ?PR?VTASKMISSEDYIELD?_?TASKS
   *DEL*:           00010CH   BYTE   INSEG    CODE           ?PR?VTASKPRIORITYDISINHERITAFTERTIMEOUT?_?TASKS
   *DEL*:           000085H   BYTE   INSEG    CODE           ?PR?VTASKSUSPEND?_?TASKS
   *DEL*:           00003DH   BYTE   INSEG    CODE           ?PR?PRVTASKISTASKSUSPENDED?_?TASKS
   *DEL*:           000056H   BYTE   UNIT     CODE           ?PR?VPORTYIELD?_?PORT
   *DEL*:           000064H   BYTE   UNIT     CODE           ?PR?PXPORTINITIALISESTACK?_?PORT
   *DEL*:           00002BH   BYTE   UNIT     CODE           ?PR?XPORTSTARTSCHEDULER?_?PORT
   *DEL*:           000001H   BYTE   UNIT     CODE           ?PR?VPORTENDSCHEDULER?_?PORT
   *DEL*:           000011H   BYTE   UNIT     CODE           ?PR?PRVPORTSETUPTIMERINTERRUPT?_?PORT
   *DEL*:           000007H   BYTE   INSEG    CODE           ?PR?VPORTINITIALISEBLOCKS?_?HEAP_1
   *DEL*:           000001H   BYTE   INSEG    CODE           ?PR?VPORTFREE?_?HEAP_1
   *DEL*:           000009H   BYTE   INSEG    CODE           ?PR?XPORTGETFREEHEAPSIZE?_?HEAP_1
   *DEL*:           00007EH   BYTE   INSEG    CODE           ?PR?PVPORTMALLOC?_?HEAP_1
   *DEL*:           000025H   BYTE   INSEG    CODE           ?PR?MEMCPY?_?MEMCPY
   *DEL*:           00001AH   BYTE   INSEG    CODE           ?PR?MEMSET?_?MEMSET



OVERLAY MAP OF MODULE:   .\Objects\FreeRTOS_Demo (croutine)


FUNCTION/MODULE                               EDATA_GROUP
--> CALLED FUNCTION/MODULE                    START  STOP
=========================================================
vTimer0ISR?_/port                             ----- -----
  +--> xTaskIncrementTick?_/tasks
  +--> vTaskSwitchContext?_/tasks

xTaskIncrementTick?_/tasks                    ----- -----
  +--> prvResetNextTaskUnblockTime?_/tasks

prvResetNextTaskUnblockTime?_/tasks           ----- -----

vTaskSwitchContext?_/tasks                    ----- -----

*** NEW ROOT ********************************

?C_C51STARTUP                                 ----- -----

*** NEW ROOT ********************************

?C_C51STARTUP?3                               ----- -----
  +--> main/main

main/main                                     ----- -----
  +--> vSystemInit?_/main
  +--> DebugPrintfInit?_/DebugPrintf
  +--> PRINTF/PRINTF

vSystemInit?_/main                            ----- -----

DebugPrintfInit?_/DebugPrintf                 ----- -----

PRINTF/PRINTF                                 0AAAH 0AD1H
  +--> OUT/PRINTF

OUT/PRINTF                                    ----- -----
L251 LINKER/LOCATER V4.66.93.0                                                        09/21/2022  15:24:00  PAGE 5


  +--> PUTCH/PRINTF

PUTCH/PRINTF                                  ----- -----
  +--> putchar/putchar
  +--> OUT/PRINTF

putchar/putchar                               ----- -----
  +--> UartPutc?_/DebugPrintf

UartPutc?_/DebugPrintf                        ----- -----

*** NEW ROOT ********************************

?C_C51STARTUP?2                               ----- -----



PUBLIC SYMBOLS OF MODULE:  .\Objects\FreeRTOS_Demo (croutine)


      VALUE       CLASS    TYPE      PUBLIC SYMBOL NAME
      =================================================
*SFR* 000000D0H.6 DATA     BIT       ?AC
*SFR* 000000E0H   DATA     BYTE      ?ACC
*SFR* 000000F0H   DATA     BYTE      ?B
      000000FFH   NUMBER   ---       ?C?CODESEG
      00FF038BH   CODE     ---       ?C?INITEDATA
      00FF0415H   HCONST   WORD      ?C?INITEDATA_END
      00FF0067H   CODE     ---       ?C?PRNFMT
      00FF0000H   CODE     ---       ?C?STARTUP
      00000001H   NUMBER   ---       ?C?XDATASEG
      00FF0000H   CODE     ---       ?C_STARTUP
*SFR* 00000083H   DATA     BYTE      ?DPH
*SFR* 00000082H   DATA     BYTE      ?DPL
*SFR* 000000A8H.7 DATA     BIT       ?EA
*SFR* 000000D0H.5 DATA     BIT       ?F0
*SFR* 000000D0H.2 DATA     BIT       ?OV
*SFR* 000000D0H.0 DATA     BIT       ?P
      00000AD2H   EDATA    ---       ?printf?BYTE
*SFR* 000000D0H   DATA     BYTE      ?PSW
*SFR* 000000D1H   DATA     BYTE      ?PSW1
*SFR* 000000D0H.3 DATA     BIT       ?RS0
*SFR* 000000D0H.4 DATA     BIT       ?RS1
*SFR* 00000081H   DATA     BYTE      ?SP
*SFR* 000000D0H.6 DATA     BIT       AC
*SFR* 000000E0H   DATA     BYTE      ACC
*SFR* 000000BCH   DATA     BYTE      ADC_CONTR
*SFR* 000000BCH.4 DATA     BIT       ADC_EPWMT
*SFR* 000000BCH.5 DATA     BIT       ADC_FLAG
*SFR* 000000BCH.7 DATA     BIT       ADC_POWER
*SFR* 000000BDH   DATA     BYTE      ADC_RES
*SFR* 000000BEH   DATA     BYTE      ADC_RESL
*SFR* 000000BCH.6 DATA     BIT       ADC_START
*SFR* 000000DEH   DATA     BYTE      ADCCFG
*SFR* 000000EFH   DATA     BYTE      AUXINTIF
*SFR* 0000008EH   DATA     BYTE      AUXR
*SFR* 00000097H   DATA     BYTE      AUXR2
*SFR* 000000F0H   DATA     BYTE      B
*SFR* 000000A5H   DATA     BYTE      BGTRIM
*SFR* 000000A1H   DATA     BYTE      BUS_SPEED
*SFR* 000000BBH.0 DATA     BIT       CAN2_S0
*SFR* 000000BBH.1 DATA     BIT       CAN2_S1
*SFR* 00000097H.2 DATA     BIT       CAN2EN
*SFR* 000000F1H.5 DATA     BIT       CAN2IE
*SFR* 000000F1H.6 DATA     BIT       CAN2IF
L251 LINKER/LOCATER V4.66.93.0                                                        09/21/2022  15:24:00  PAGE 6


*SFR* 000000A2H.4 DATA     BIT       CAN_S0
*SFR* 000000A2H.5 DATA     BIT       CAN_S1
*SFR* 00000097H.1 DATA     BIT       CANEN
*SFR* 000000F1H   DATA     BYTE      CANICR
*SFR* 000000F1H.1 DATA     BIT       CANIE
*SFR* 000000F1H.2 DATA     BIT       CANIF
*SFR* 00000097H.3 DATA     BIT       CANSEL
*SFR* 000000EAH   DATA     BYTE      CKCON
*SFR* 000000C1H.4 DATA     BIT       CLR_WDT
*SFR* 000000C7H.4 DATA     BIT       CMD_FAIL
*SFR* 000000E6H   DATA     BYTE      CMPCR1
*SFR* 000000E7H   DATA     BYTE      CMPCR2
*SFR* 000000E6H.7 DATA     BIT       CMPEN
*SFR* 000000E6H.6 DATA     BIT       CMPIF
*SFR* 000000BAH.3 DATA     BIT       CMPO_S
*SFR* 000000E6H.1 DATA     BIT       CMPOE
*SFR* 000000E6H.0 DATA     BIT       CMPRES
*SFR* 000000CEH.2 DATA     BIT       CPHA
*SFR* 000000CEH.3 DATA     BIT       CPOL
*SFR* 000000D0H.7 DATA     BIT       CY
      00FF0739H   CODE     ---       DebugPrintfInit?_
*SFR* 000000F4H.2 DATA     BIT       DFREC
*SFR* 000000E7H.6 DATA     BIT       DISFLT
*SFR* 000000F4H.0 DATA     BIT       DM
*SFR* 000000EDH   DATA     BYTE      DMAIR
*SFR* 000000CEH.5 DATA     BIT       DORD
*SFR* 000000F4H.1 DATA     BIT       DP
*SFR* 00000083H   DATA     BYTE      DPH
*SFR* 000000E5H   DATA     BYTE      DPH1
*SFR* 00000082H   DATA     BYTE      DPL
*SFR* 000000E4H   DATA     BYTE      DPL1
*SFR* 000000E3H   DATA     BYTE      DPS
*SFR* 00000084H   DATA     BYTE      DPXL
*SFR* 000000A8H.7 DATA     BIT       EA
*SFR* 000000A8H.5 DATA     BIT       EADC
*SFR* 000000BAH.7 DATA     BIT       EAXFR
*SFR* 000000A8H.6 DATA     BIT       ELVD
*SFR* 000000C1H.5 DATA     BIT       EN_WDT
*SFR* 000000FFH.6 DATA     BIT       ENLVR
*SFR* 000000F4H.7 DATA     BIT       ENUSB
*SFR* 000000A8H.4 DATA     BIT       ES
*SFR* 000000AFH.0 DATA     BIT       ES2
*SFR* 000000AFH.3 DATA     BIT       ES3
*SFR* 000000AFH.4 DATA     BIT       ES4
*SFR* 000000AFH.1 DATA     BIT       ESPI
*SFR* 000000A8H.1 DATA     BIT       ET0
*SFR* 000000A8H.3 DATA     BIT       ET1
*SFR* 000000AFH.2 DATA     BIT       ET2
*SFR* 000000AFH.5 DATA     BIT       ET3
*SFR* 000000AFH.6 DATA     BIT       ET4
*SFR* 000000AFH.7 DATA     BIT       EUSB
*SFR* 000000A8H.0 DATA     BIT       EX0
*SFR* 000000A8H.2 DATA     BIT       EX1
*SFR* 0000008FH.4 DATA     BIT       EX2
*SFR* 0000008FH.5 DATA     BIT       EX3
*SFR* 0000008FH.6 DATA     BIT       EX4
*SFR* 0000008EH.1 DATA     BIT       EXTRAM
*SFR* 000000D0H.5 DATA     BIT       F0
*SFR* 00000087H.2 DATA     BIT       GF0
*SFR* 00000087H.3 DATA     BIT       GF1
*SFR* 0000009DH.0 DATA     BIT       HIRCSEL0
*SFR* 0000009DH.1 DATA     BIT       HIRCSEL1
*SFR* 000000BAH.4 DATA     BIT       I2C_S0
*SFR* 000000BAH.5 DATA     BIT       I2C_S1
*SFR* 000000BBH.6 DATA     BIT       I2S_S0
L251 LINKER/LOCATER V4.66.93.0                                                        09/21/2022  15:24:00  PAGE 7


*SFR* 000000BBH.7 DATA     BIT       I2S_S1
*SFR* 000000F6H   DATA     BYTE      IAP_ADDRE
*SFR* 000000C3H   DATA     BYTE      IAP_ADDRH
*SFR* 000000C4H   DATA     BYTE      IAP_ADDRL
*SFR* 000000C5H   DATA     BYTE      IAP_CMD
*SFR* 000000C7H   DATA     BYTE      IAP_CONTR
*SFR* 000000C2H   DATA     BYTE      IAP_DATA
*SFR* 000000F5H   DATA     BYTE      IAP_TPS
*SFR* 000000C6H   DATA     BYTE      IAP_TRIG
*SFR* 000000C7H.7 DATA     BIT       IAPEN
*SFR* 000000F7H   DATA     BYTE      ICHECR
*SFR* 00000087H.0 DATA     BIT       IDL
*SFR* 000000C1H.3 DATA     BIT       IDL_WDT
*SFR* 000000A8H   DATA     BYTE      IE
*SFR* 00000088H.1 DATA     BIT       IE0
*SFR* 00000088H.3 DATA     BIT       IE1
*SFR* 000000AFH   DATA     BYTE      IE2
*SFR* 000000EFH.4 DATA     BIT       INT2IF
*SFR* 000000EFH.5 DATA     BIT       INT3IF
*SFR* 000000EFH.6 DATA     BIT       INT4IF
*SFR* 0000008FH   DATA     BYTE      INTCLKO
*SFR* 000000E7H.7 DATA     BIT       INVCMPO
*SFR* 000000B8H   DATA     BYTE      IP
*SFR* 000000B5H   DATA     BYTE      IP2
*SFR* 000000B6H   DATA     BYTE      IP2H
*SFR* 000000DFH   DATA     BYTE      IP3
*SFR* 000000EEH   DATA     BYTE      IP3H
*SFR* 000000B7H   DATA     BYTE      IPH
*SFR* 0000009DH   DATA     BYTE      IRCBAND
*SFR* 0000009FH   DATA     BYTE      IRTRIM
*SFR* 00000088H.0 DATA     BIT       IT0
*SFR* 00000088H.2 DATA     BIT       IT1
*SFR* 000000A2H.0 DATA     BIT       LIN_S0
*SFR* 000000A2H.1 DATA     BIT       LIN_S1
*SFR* 000000FAH   DATA     BYTE      LINAR
*SFR* 000000FBH   DATA     BYTE      LINDR
*SFR* 00000097H.0 DATA     BIT       LINEN
*SFR* 000000F9H   DATA     BYTE      LINICR
*SFR* 000000F9H.1 DATA     BIT       LINIE
*SFR* 000000F9H.2 DATA     BIT       LINIF
*SFR* 0000009EH   DATA     BYTE      LIRTRIM
*SFR* 00000087H.5 DATA     BIT       LVDF
      00FF0750H   CODE     ---       main
*DEL*:00000000H   CODE     ---       memcpy?_
*DEL*:00000000H   CODE     ---       memset?_
*SFR* 000000CEH.4 DATA     BIT       MSTR
*SFR* 000000EBH   DATA     BYTE      MXAX
*SFR* 000000E6H.4 DATA     BIT       NIE
*SFR* 000000D0H.2 DATA     BIT       OV
*SFR* 000000D0H.0 DATA     BIT       P
*SFR* 00000080H   DATA     BYTE      P0
*SFR* 00000080H.0 DATA     BIT       P00
*SFR* 00000080H.1 DATA     BIT       P01
*SFR* 00000080H.2 DATA     BIT       P02
*SFR* 00000080H.3 DATA     BIT       P03
*SFR* 00000080H.4 DATA     BIT       P04
*SFR* 00000080H.5 DATA     BIT       P05
*SFR* 00000080H.6 DATA     BIT       P06
*SFR* 00000080H.7 DATA     BIT       P07
*SFR* 00000094H   DATA     BYTE      P0M0
*SFR* 00000093H   DATA     BYTE      P0M1
*SFR* 00000090H   DATA     BYTE      P1
*SFR* 00000090H.0 DATA     BIT       P10
*SFR* 00000090H.1 DATA     BIT       P11
*SFR* 00000090H.2 DATA     BIT       P12
L251 LINKER/LOCATER V4.66.93.0                                                        09/21/2022  15:24:00  PAGE 8


*SFR* 00000090H.3 DATA     BIT       P13
*SFR* 00000090H.4 DATA     BIT       P14
*SFR* 00000090H.5 DATA     BIT       P15
*SFR* 00000090H.6 DATA     BIT       P16
*SFR* 00000090H.7 DATA     BIT       P17
*SFR* 00000092H   DATA     BYTE      P1M0
*SFR* 00000091H   DATA     BYTE      P1M1
*SFR* 000000A0H   DATA     BYTE      P2
*SFR* 000000A0H.0 DATA     BIT       P20
*SFR* 000000A0H.1 DATA     BIT       P21
*SFR* 000000A0H.2 DATA     BIT       P22
*SFR* 000000A0H.3 DATA     BIT       P23
*SFR* 000000A0H.4 DATA     BIT       P24
*SFR* 000000A0H.5 DATA     BIT       P25
*SFR* 000000A0H.6 DATA     BIT       P26
*SFR* 000000A0H.7 DATA     BIT       P27
*SFR* 00000096H   DATA     BYTE      P2M0
*SFR* 00000095H   DATA     BYTE      P2M1
*SFR* 000000B0H   DATA     BYTE      P3
*SFR* 000000B0H.0 DATA     BIT       P30
*SFR* 000000B0H.1 DATA     BIT       P31
*SFR* 000000B0H.2 DATA     BIT       P32
*SFR* 000000B0H.3 DATA     BIT       P33
*SFR* 000000B0H.4 DATA     BIT       P34
*SFR* 000000B0H.5 DATA     BIT       P35
*SFR* 000000B0H.6 DATA     BIT       P36
*SFR* 000000B0H.7 DATA     BIT       P37
*SFR* 000000B2H   DATA     BYTE      P3M0
*SFR* 000000B1H   DATA     BYTE      P3M1
*SFR* 000000C0H   DATA     BYTE      P4
*SFR* 000000C0H.0 DATA     BIT       P40
*SFR* 000000C0H.1 DATA     BIT       P41
*SFR* 000000C0H.2 DATA     BIT       P42
*SFR* 000000C0H.3 DATA     BIT       P43
*SFR* 000000C0H.4 DATA     BIT       P44
*SFR* 000000C0H.5 DATA     BIT       P45
*SFR* 000000C0H.6 DATA     BIT       P46
*SFR* 000000C0H.7 DATA     BIT       P47
*SFR* 000000B4H   DATA     BYTE      P4M0
*SFR* 000000B3H   DATA     BYTE      P4M1
*SFR* 000000C8H   DATA     BYTE      P5
*SFR* 000000C8H.0 DATA     BIT       P50
*SFR* 000000C8H.1 DATA     BIT       P51
*SFR* 000000C8H.2 DATA     BIT       P52
*SFR* 000000C8H.3 DATA     BIT       P53
*SFR* 000000C8H.4 DATA     BIT       P54
*SFR* 000000FFH.4 DATA     BIT       P54RST
*SFR* 000000C8H.5 DATA     BIT       P55
*SFR* 000000C8H.6 DATA     BIT       P56
*SFR* 000000C8H.7 DATA     BIT       P57
*SFR* 000000CAH   DATA     BYTE      P5M0
*SFR* 000000C9H   DATA     BYTE      P5M1
*SFR* 000000E8H   DATA     BYTE      P6
*SFR* 000000E8H.0 DATA     BIT       P60
*SFR* 000000E8H.1 DATA     BIT       P61
*SFR* 000000E8H.2 DATA     BIT       P62
*SFR* 000000E8H.3 DATA     BIT       P63
*SFR* 000000E8H.4 DATA     BIT       P64
*SFR* 000000E8H.5 DATA     BIT       P65
*SFR* 000000E8H.6 DATA     BIT       P66
*SFR* 000000E8H.7 DATA     BIT       P67
*SFR* 000000CCH   DATA     BYTE      P6M0
*SFR* 000000CBH   DATA     BYTE      P6M1
*SFR* 000000F8H   DATA     BYTE      P7
*SFR* 000000F8H.0 DATA     BIT       P70
L251 LINKER/LOCATER V4.66.93.0                                                        09/21/2022  15:24:00  PAGE 9


*SFR* 000000F8H.1 DATA     BIT       P71
*SFR* 000000F8H.2 DATA     BIT       P72
*SFR* 000000F8H.3 DATA     BIT       P73
*SFR* 000000F8H.4 DATA     BIT       P74
*SFR* 000000F8H.5 DATA     BIT       P75
*SFR* 000000F8H.6 DATA     BIT       P76
*SFR* 000000F8H.7 DATA     BIT       P77
*SFR* 000000E2H   DATA     BYTE      P7M0
*SFR* 000000E1H   DATA     BYTE      P7M1
*SFR* 000000A2H   DATA     BYTE      P_SW1
*SFR* 000000BAH   DATA     BYTE      P_SW2
*SFR* 000000BBH   DATA     BYTE      P_SW3
*SFR* 000000B8H.5 DATA     BIT       PADC
*SFR* 000000B7H.5 DATA     BIT       PADCH
*SFR* 000000F1H.7 DATA     BIT       PCAN2H
*SFR* 000000F1H.4 DATA     BIT       PCAN2L
*SFR* 000000F1H.3 DATA     BIT       PCANH
*SFR* 000000F1H.0 DATA     BIT       PCANL
*SFR* 000000B5H.5 DATA     BIT       PCMP
*SFR* 000000B6H.5 DATA     BIT       PCMPH
*SFR* 00000087H   DATA     BYTE      PCON
*DEL*:00000000H   CODE     ---       pcTaskGetName?_
*SFR* 00000087H.1 DATA     BIT       PD
*SFR* 000000F4H.3 DATA     BIT       PDEN
*SFR* 000000B5H.6 DATA     BIT       PI2C
*SFR* 000000B6H.6 DATA     BIT       PI2CH
*SFR* 000000DFH.3 DATA     BIT       PI2S
*SFR* 000000EEH.3 DATA     BIT       PI2SH
*SFR* 000000E6H.5 DATA     BIT       PIE
*SFR* 000000F9H.3 DATA     BIT       PLINH
*SFR* 000000F9H.0 DATA     BIT       PLINL
*SFR* 000000B8H.6 DATA     BIT       PLVD
*SFR* 000000B7H.6 DATA     BIT       PLVDH
*SFR* 00000087H.4 DATA     BIT       POF
*SFR* 000000B5H.2 DATA     BIT       PPWMA
*SFR* 000000B6H.2 DATA     BIT       PPWMAH
*SFR* 000000B5H.3 DATA     BIT       PPWMB
*SFR* 000000B6H.3 DATA     BIT       PPWMBH
      00FF000EH   CODE     NEAR LAB  printf
*SFR* 000000DFH.2 DATA     BIT       PRTC
*SFR* 000000EEH.2 DATA     BIT       PRTCH
*SFR* 000000B8H.4 DATA     BIT       PS
*SFR* 000000B5H.0 DATA     BIT       PS2
*SFR* 000000B6H.0 DATA     BIT       PS2H
*SFR* 000000F4H.5 DATA     BIT       PS2M
*SFR* 000000DFH.0 DATA     BIT       PS3
*SFR* 000000EEH.0 DATA     BIT       PS3H
*SFR* 000000DFH.1 DATA     BIT       PS4
*SFR* 000000EEH.1 DATA     BIT       PS4H
*SFR* 000000B7H.4 DATA     BIT       PSH
*SFR* 000000B5H.1 DATA     BIT       PSPI
*SFR* 000000B6H.1 DATA     BIT       PSPIH
*SFR* 000000D0H   DATA     BYTE      PSW
*SFR* 000000D1H   DATA     BYTE      PSW1
*SFR* 000000B8H.1 DATA     BIT       PT0
*SFR* 000000B7H.1 DATA     BIT       PT0H
*SFR* 000000B8H.3 DATA     BIT       PT1
*SFR* 000000B7H.3 DATA     BIT       PT1H
*SFR* 000000F4H.4 DATA     BIT       PUEN
*SFR* 000000B5H.7 DATA     BIT       PUSB
*SFR* 000000B6H.7 DATA     BIT       PUSBH
      00FF072EH   CODE     ---       putchar
*DEL*:00000000H   CODE     ---       pvPortMalloc?_
*DEL*:00000000H   CODE     ---       pvTaskIncrementMutexHeldCount?_
*SFR* 000000B8H.0 DATA     BIT       PX0
L251 LINKER/LOCATER V4.66.93.0                                                        09/21/2022  15:24:00  PAGE 10


*SFR* 000000B7H.0 DATA     BIT       PX0H
*SFR* 000000B8H.2 DATA     BIT       PX1
*SFR* 000000B7H.2 DATA     BIT       PX1H
*SFR* 000000B5H.4 DATA     BIT       PX4
*SFR* 000000B6H.4 DATA     BIT       PX4H
      00000A5EH   EDATA    ---       pxCurrentTCB
*DEL*:00000000H   CODE     NEAR LAB  pxPortInitialiseStack?_
*SFR* 00000098H.2 DATA     BIT       RB8
*SFR* 00000098H.4 DATA     BIT       REN
*SFR* 000000DEH.5 DATA     BIT       RESFMT
*SFR* 00000098H.0 DATA     BIT       RI
*SFR* 000000D0H.3 DATA     BIT       RS0
*SFR* 000000D0H.4 DATA     BIT       RS1
*SFR* 000000FFH   DATA     BYTE      RSTCFG
*SFR* 000000A2H.6 DATA     BIT       S1_S0
*SFR* 000000A2H.7 DATA     BIT       S1_S1
*SFR* 0000008EH.0 DATA     BIT       S1BRT
*SFR* 0000008EH.5 DATA     BIT       S1M0x6
*SFR* 000000BBH.2 DATA     BIT       S1SPI_S0
*SFR* 000000BBH.3 DATA     BIT       S1SPI_S1
*SFR* 000000BAH.0 DATA     BIT       S2_S
*SFR* 0000009BH   DATA     BYTE      S2BUF
*SFR* 0000009AH   DATA     BYTE      S2CON
*SFR* 0000009AH.2 DATA     BIT       S2RB8
*SFR* 0000009AH.4 DATA     BIT       S2REN
*SFR* 0000009AH.0 DATA     BIT       S2RI
*SFR* 0000009AH.7 DATA     BIT       S2SM0
*SFR* 0000009AH.6 DATA     BIT       S2SM1
*SFR* 0000009AH.5 DATA     BIT       S2SM2
*SFR* 000000BBH.4 DATA     BIT       S2SPI_S0
*SFR* 000000BBH.5 DATA     BIT       S2SPI_S1
*SFR* 0000009AH.3 DATA     BIT       S2TB8
*SFR* 0000009AH.1 DATA     BIT       S2TI
*SFR* 000000BAH.1 DATA     BIT       S3_S
*SFR* 000000ADH   DATA     BYTE      S3BUF
*SFR* 000000ACH   DATA     BYTE      S3CON
*SFR* 000000ACH.2 DATA     BIT       S3RB8
*SFR* 000000ACH.4 DATA     BIT       S3REN
*SFR* 000000ACH.0 DATA     BIT       S3RI
*SFR* 000000ACH.7 DATA     BIT       S3SM0
*SFR* 000000ACH.5 DATA     BIT       S3SM2
*SFR* 000000ACH.6 DATA     BIT       S3ST3
*SFR* 000000ACH.3 DATA     BIT       S3TB8
*SFR* 000000ACH.1 DATA     BIT       S3TI
*SFR* 000000BAH.2 DATA     BIT       S4_S
*SFR* 000000FEH   DATA     BYTE      S4BUF
*SFR* 000000FDH   DATA     BYTE      S4CON
*SFR* 000000FDH.2 DATA     BIT       S4RB8
*SFR* 000000FDH.4 DATA     BIT       S4REN
*SFR* 000000FDH.0 DATA     BIT       S4RI
*SFR* 000000FDH.7 DATA     BIT       S4SM0
*SFR* 000000FDH.5 DATA     BIT       S4SM2
*SFR* 000000FDH.6 DATA     BIT       S4ST4
*SFR* 000000FDH.3 DATA     BIT       S4TB8
*SFR* 000000FDH.1 DATA     BIT       S4TI
*SFR* 000000A9H   DATA     BYTE      SADDR
*SFR* 000000B9H   DATA     BYTE      SADEN
*SFR* 00000099H   DATA     BYTE      SBUF
*SFR* 00000098H   DATA     BYTE      SCON
*SFR* 00000098H.7 DATA     BIT       SM0
*SFR* 00000098H.6 DATA     BIT       SM1
*SFR* 00000098H.5 DATA     BIT       SM2
*SFR* 00000087H.7 DATA     BIT       SMOD
*SFR* 00000087H.6 DATA     BIT       SMOD0
*SFR* 00000081H   DATA     BYTE      SP
L251 LINKER/LOCATER V4.66.93.0                                                        09/21/2022  15:24:00  PAGE 11


*SFR* 000000CEH   DATA     BYTE      SPCTL
*SFR* 000000CFH   DATA     BYTE      SPDAT
*SFR* 000000CEH.6 DATA     BIT       SPEN
*SFR* 00000085H   DATA     BYTE      SPH
*SFR* 000000A2H.2 DATA     BIT       SPI_S0
*SFR* 000000A2H.3 DATA     BIT       SPI_S1
*SFR* 000000CDH.7 DATA     BIT       SPIF
*SFR* 000000CEH.0 DATA     BIT       SPR0
*SFR* 000000CEH.1 DATA     BIT       SPR1
*SFR* 000000CDH   DATA     BYTE      SPSTAT
*SFR* 000000CEH.7 DATA     BIT       SSIG
*SFR* 000000C7H.6 DATA     BIT       SWBS
*SFR* 000000C7H.5 DATA     BIT       SWRST
*SFR* 00000089H.2 DATA     BIT       T0_CT
*SFR* 00000089H.3 DATA     BIT       T0_GATE
*SFR* 00000089H.0 DATA     BIT       T0_M0
*SFR* 00000089H.1 DATA     BIT       T0_M1
*SFR* 0000008FH.0 DATA     BIT       T0CLKO
*SFR* 0000008EH.7 DATA     BIT       T0x12
*SFR* 00000089H.6 DATA     BIT       T1_CT
*SFR* 00000089H.7 DATA     BIT       T1_GATE
*SFR* 00000089H.4 DATA     BIT       T1_M0
*SFR* 00000089H.5 DATA     BIT       T1_M1
*SFR* 0000008FH.1 DATA     BIT       T1CLKO
*SFR* 0000008EH.6 DATA     BIT       T1x12
*SFR* 0000008EH.3 DATA     BIT       T2_CT
*SFR* 0000008FH.2 DATA     BIT       T2CLKO
*SFR* 000000D6H   DATA     BYTE      T2H
*SFR* 000000EFH.0 DATA     BIT       T2IF
*SFR* 000000D7H   DATA     BYTE      T2L
*SFR* 0000008EH.4 DATA     BIT       T2R
*SFR* 0000008EH.2 DATA     BIT       T2x12
*SFR* 000000DDH.2 DATA     BIT       T3_CT
*SFR* 000000DDH.0 DATA     BIT       T3CLKO
*SFR* 000000D4H   DATA     BYTE      T3H
*SFR* 000000EFH.1 DATA     BIT       T3IF
*SFR* 000000D5H   DATA     BYTE      T3L
*SFR* 000000DDH.3 DATA     BIT       T3R
*SFR* 000000DDH.1 DATA     BIT       T3x12
*SFR* 000000DDH.6 DATA     BIT       T4_CT
*SFR* 000000DDH.4 DATA     BIT       T4CLKO
*SFR* 000000D2H   DATA     BYTE      T4H
*SFR* 000000EFH.2 DATA     BIT       T4IF
*SFR* 000000D3H   DATA     BYTE      T4L
*SFR* 000000DDH.7 DATA     BIT       T4R
*SFR* 000000DDH   DATA     BYTE      T4T3M
*SFR* 000000DDH.5 DATA     BIT       T4x12
*SFR* 000000AEH   DATA     BYTE      TA
*SFR* 00000098H.3 DATA     BIT       TB8
*SFR* 00000088H   DATA     BYTE      TCON
*SFR* 00000088H.5 DATA     BIT       TF0
*SFR* 00000088H.7 DATA     BIT       TF1
*SFR* 0000008CH   DATA     BYTE      TH0
*SFR* 0000008DH   DATA     BYTE      TH1
*SFR* 00000098H.1 DATA     BIT       TI
*SFR* 0000008AH   DATA     BYTE      TL0
*SFR* 0000008BH   DATA     BYTE      TL1
*SFR* 00000089H   DATA     BYTE      TMOD
*SFR* 00000088H.4 DATA     BIT       TR0
*SFR* 00000088H.6 DATA     BIT       TR1
      00FF0722H   CODE     ---       UartPutc?_
*DEL*:00000000H   CODE     ---       ulTaskGenericNotifyTake?_
*DEL*:00000000H   CODE     ---       ulTaskGenericNotifyValueClear?_
*SFR* 000000FCH   DATA     BYTE      USBADR
*SFR* 0000009DH.7 DATA     BIT       USBCKS
L251 LINKER/LOCATER V4.66.93.0                                                        09/21/2022  15:24:00  PAGE 12


*SFR* 0000009DH.6 DATA     BIT       USBCKS2
*SFR* 000000DCH   DATA     BYTE      USBCLK
*SFR* 000000F4H   DATA     BYTE      USBCON
*SFR* 000000ECH   DATA     BYTE      USBDAT
*SFR* 000000F4H.6 DATA     BIT       USBRST
*DEL*:00000000H   CODE     ---       uxListRemove?_
*DEL*:00000000H   CODE     ---       uxQueueMessagesWaiting?_
*DEL*:00000000H   CODE     ---       uxQueueMessagesWaitingFromISR?_
*DEL*:00000000H   CODE     ---       uxQueueSpacesAvailable?_
*DEL*:00000000H   CODE     ---       uxTaskGetNumberOfTasks?_
*DEL*:00000000H   CODE     ---       uxTaskPriorityGet?_
*DEL*:00000000H   CODE     ---       uxTaskPriorityGetFromISR?_
*DEL*:00000000H   CODE     ---       uxTaskResetEventItemValue?_
      00FF041CH   HCONST   BYTE      uxTopUsedPriority
*SFR* 000000A3H   DATA     BYTE      V33TRIM
*DEL*:00000000H   CODE     ---       vEventGroupClearBitsCallback?_
*DEL*:00000000H   CODE     ---       vEventGroupDelete?_
*DEL*:00000000H   CODE     ---       vEventGroupSetBitsCallback?_
*DEL*:00000000H   CODE     ---       vListInitialise?_
*DEL*:00000000H   CODE     ---       vListInitialiseItem?_
*DEL*:00000000H   CODE     ---       vListInsert?_
*DEL*:00000000H   CODE     ---       vListInsertEnd?_
*DEL*:00000000H   CODE     NEAR LAB  vPortEndScheduler?_
*DEL*:00000000H   CODE     ---       vPortFree?_
*DEL*:00000000H   CODE     ---       vPortInitialiseBlocks?_
*DEL*:00000000H   CODE     NEAR LAB  vPortYield?_
*DEL*:00000000H   CODE     ---       vQueueDelete?_
*SFR* 000000A6H   DATA     BYTE      VRTRIM
*DEL*:00000000H   CODE     ---       vStreamBufferDelete?_
      00FF0760H   CODE     ---       vSystemInit?_
*DEL*:00000000H   CODE     ---       vTaskDelay?_
*DEL*:00000000H   CODE     ---       vTaskDelete?_
*DEL*:00000000H   CODE     ---       vTaskEndScheduler?_
*DEL*:00000000H   CODE     ---       vTaskGenericNotifyGiveFromISR?_
*DEL*:00000000H   CODE     ---       vTaskInternalSetTimeOutState?_
*DEL*:00000000H   CODE     ---       vTaskMissedYield?_
*DEL*:00000000H   CODE     ---       vTaskPlaceOnEventList?_
*DEL*:00000000H   CODE     ---       vTaskPlaceOnUnorderedEventList?_
*DEL*:00000000H   CODE     ---       vTaskPriorityDisinheritAfterTimeout?_
*DEL*:00000000H   CODE     ---       vTaskPrioritySet?_
*DEL*:00000000H   CODE     ---       vTaskRemoveFromUnorderedEventList?_
*DEL*:00000000H   CODE     ---       vTaskResume?_
*DEL*:00000000H   CODE     ---       vTaskSetTimeOutState?_
*DEL*:00000000H   CODE     ---       vTaskStartScheduler?_
*DEL*:00000000H   CODE     ---       vTaskSuspend?_
*DEL*:00000000H   CODE     ---       vTaskSuspendAll?_
      00FF0698H   CODE     ---       vTaskSwitchContext?_
      00FF030EH   CODE     NEAR LAB  vTimer0ISR?_
*SFR* 000000CDH.6 DATA     BIT       WCOL
*SFR* 000000C1H   DATA     BYTE      WDT_CONTR
*SFR* 000000C1H.7 DATA     BIT       WDT_FLAG
*SFR* 000000ABH   DATA     BYTE      WKTCH
*SFR* 000000AAH   DATA     BYTE      WKTCL
*SFR* 000000E9H   DATA     BYTE      WTST
*DEL*:00000000H   CODE     ---       xEventGroupClearBits?_
*DEL*:00000000H   CODE     ---       xEventGroupCreate?_
*DEL*:00000000H   CODE     ---       xEventGroupGetBitsFromISR?_
*DEL*:00000000H   CODE     ---       xEventGroupSetBits?_
*DEL*:00000000H   CODE     ---       xEventGroupSync?_
*DEL*:00000000H   CODE     ---       xEventGroupWaitBits?_
*DEL*:00000000H   CODE     ---       xPortGetFreeHeapSize?_
*DEL*:00000000H   CODE     NEAR LAB  xPortStartScheduler?_
*DEL*:00000000H   CODE     ---       xQueueCreateMutex?_
*DEL*:00000000H   CODE     ---       xQueueGenericCreate?_
*DEL*:00000000H   CODE     ---       xQueueGenericReset?_
L251 LINKER/LOCATER V4.66.93.0                                                        09/21/2022  15:24:00  PAGE 13


*DEL*:00000000H   CODE     ---       xQueueGenericSend?_
*DEL*:00000000H   CODE     ---       xQueueGenericSendFromISR?_
*DEL*:00000000H   CODE     ---       xQueueGiveFromISR?_
*DEL*:00000000H   CODE     ---       xQueueIsQueueEmptyFromISR?_
*DEL*:00000000H   CODE     ---       xQueueIsQueueFullFromISR?_
*DEL*:00000000H   CODE     ---       xQueuePeek?_
*DEL*:00000000H   CODE     ---       xQueuePeekFromISR?_
*DEL*:00000000H   CODE     ---       xQueueReceive?_
*DEL*:00000000H   CODE     ---       xQueueReceiveFromISR?_
*DEL*:00000000H   CODE     ---       xQueueSemaphoreTake?_
*DEL*:00000000H   CODE     ---       xStreamBufferBytesAvailable?_
*DEL*:00000000H   CODE     ---       xStreamBufferGenericCreate?_
*DEL*:00000000H   CODE     ---       xStreamBufferIsEmpty?_
*DEL*:00000000H   CODE     ---       xStreamBufferIsFull?_
*DEL*:00000000H   CODE     ---       xStreamBufferNextMessageLengthBytes?_
*DEL*:00000000H   CODE     ---       xStreamBufferReceive?_
*DEL*:00000000H   CODE     ---       xStreamBufferReceiveCompletedFromISR?_
*DEL*:00000000H   CODE     ---       xStreamBufferReceiveFromISR?_
*DEL*:00000000H   CODE     ---       xStreamBufferReset?_
*DEL*:00000000H   CODE     ---       xStreamBufferSend?_
*DEL*:00000000H   CODE     ---       xStreamBufferSendCompletedFromISR?_
*DEL*:00000000H   CODE     ---       xStreamBufferSendFromISR?_
*DEL*:00000000H   CODE     ---       xStreamBufferSetTriggerLevel?_
*DEL*:00000000H   CODE     ---       xStreamBufferSpacesAvailable?_
*DEL*:00000000H   CODE     ---       xTaskCatchUpTicks?_
*DEL*:00000000H   CODE     ---       xTaskCheckForTimeOut?_
*DEL*:00000000H   CODE     ---       xTaskCreate?_
*DEL*:00000000H   CODE     ---       xTaskDelayUntil?_
*DEL*:00000000H   CODE     ---       xTaskGenericNotify?_
*DEL*:00000000H   CODE     ---       xTaskGenericNotifyFromISR?_
*DEL*:00000000H   CODE     ---       xTaskGenericNotifyStateClear?_
*DEL*:00000000H   CODE     ---       xTaskGenericNotifyWait?_
*DEL*:00000000H   CODE     ---       xTaskGetCurrentTaskHandle?_
*DEL*:00000000H   CODE     ---       xTaskGetTickCount?_
*DEL*:00000000H   CODE     ---       xTaskGetTickCountFromISR?_
      00FF0451H   CODE     ---       xTaskIncrementTick?_
*DEL*:00000000H   CODE     ---       xTaskPriorityDisinherit?_
*DEL*:00000000H   CODE     ---       xTaskPriorityInherit?_
*DEL*:00000000H   CODE     ---       xTaskRemoveFromEventList?_
*DEL*:00000000H   CODE     ---       xTaskResumeAll?_
*DEL*:00000000H   CODE     ---       xTaskResumeFromISR?_
*SFR* 000000D1H.1 DATA     BIT       Z



SYMBOL TABLE OF MODULE:  .\Objects\FreeRTOS_Demo (croutine)

      VALUE       REP       CLASS    TYPE      SYMBOL NAME
      ====================================================
      ---         MODULE    ---      ---       croutine
      000000D0H   SFRSYM    DATA     BYTE      PSW
      0000009DH   SFRSYM    DATA     BYTE      IRCBAND
      00000097H   SFRSYM    DATA     BYTE      AUXR2
      000000EFH   SFRSYM    DATA     BYTE      AUXINTIF
      000000FDH   SFRSYM    DATA     BYTE      S4CON
      000000ACH   SFRSYM    DATA     BYTE      S3CON
      0000009AH   SFRSYM    DATA     BYTE      S2CON
      000000B7H   SFRSYM    DATA     BYTE      IPH
      000000CDH   SFRSYM    DATA     BYTE      SPSTAT
      000000DDH   SFRSYM    DATA     BYTE      T4T3M
      000000C1H   SFRSYM    DATA     BYTE      WDT_CONTR
      000000DFH   SFRSYM    DATA     BYTE      IP3
      000000F4H   SFRSYM    DATA     BYTE      USBCON
      000000B5H   SFRSYM    DATA     BYTE      IP2
      000000FFH   SFRSYM    DATA     BYTE      RSTCFG
L251 LINKER/LOCATER V4.66.93.0                                                        09/21/2022  15:24:00  PAGE 14


      000000C7H   SFRSYM    DATA     BYTE      IAP_CONTR
      000000F9H   SFRSYM    DATA     BYTE      LINICR
      0000008EH   SFRSYM    DATA     BYTE      AUXR
      000000AFH   SFRSYM    DATA     BYTE      IE2
      00000088H   SFRSYM    DATA     BYTE      TCON
      00000089H   SFRSYM    DATA     BYTE      TMOD
      00000098H   SFRSYM    DATA     BYTE      SCON
      000000F1H   SFRSYM    DATA     BYTE      CANICR
      00000087H   SFRSYM    DATA     BYTE      PCON
      000000BCH   SFRSYM    DATA     BYTE      ADC_CONTR
      000000E7H   SFRSYM    DATA     BYTE      CMPCR2
      000000E6H   SFRSYM    DATA     BYTE      CMPCR1
      000000DEH   SFRSYM    DATA     BYTE      ADCCFG
      000000B8H   SFRSYM    DATA     BYTE      IP
      0000008FH   SFRSYM    DATA     BYTE      INTCLKO
      000000EEH   SFRSYM    DATA     BYTE      IP3H
      000000B6H   SFRSYM    DATA     BYTE      IP2H
      000000A8H   SFRSYM    DATA     BYTE      IE
      000000BBH   SFRSYM    DATA     BYTE      P_SW3
      000000BAH   SFRSYM    DATA     BYTE      P_SW2
      000000A2H   SFRSYM    DATA     BYTE      P_SW1
      000000CEH   SFRSYM    DATA     BYTE      SPCTL
      000000F8H   SFRSYM    DATA     BYTE      P7
      000000E8H   SFRSYM    DATA     BYTE      P6
      000000C8H   SFRSYM    DATA     BYTE      P5
      000000C0H   SFRSYM    DATA     BYTE      P4
      000000B0H   SFRSYM    DATA     BYTE      P3
      000000A0H   SFRSYM    DATA     BYTE      P2
      00000090H   SFRSYM    DATA     BYTE      P1
      00000080H   SFRSYM    DATA     BYTE      P0

      ---         MODULE    ---      ---       event_groups
      000000D0H   SFRSYM    DATA     BYTE      PSW
      0000009DH   SFRSYM    DATA     BYTE      IRCBAND
      00000097H   SFRSYM    DATA     BYTE      AUXR2
      000000EFH   SFRSYM    DATA     BYTE      AUXINTIF
      000000FDH   SFRSYM    DATA     BYTE      S4CON
      000000ACH   SFRSYM    DATA     BYTE      S3CON
      0000009AH   SFRSYM    DATA     BYTE      S2CON
      000000B7H   SFRSYM    DATA     BYTE      IPH
      000000CDH   SFRSYM    DATA     BYTE      SPSTAT
      000000DDH   SFRSYM    DATA     BYTE      T4T3M
      000000C1H   SFRSYM    DATA     BYTE      WDT_CONTR
      000000DFH   SFRSYM    DATA     BYTE      IP3
      000000F4H   SFRSYM    DATA     BYTE      USBCON
      000000B5H   SFRSYM    DATA     BYTE      IP2
      000000FFH   SFRSYM    DATA     BYTE      RSTCFG
      000000C7H   SFRSYM    DATA     BYTE      IAP_CONTR
      000000F9H   SFRSYM    DATA     BYTE      LINICR
      0000008EH   SFRSYM    DATA     BYTE      AUXR
      000000AFH   SFRSYM    DATA     BYTE      IE2
      00000088H   SFRSYM    DATA     BYTE      TCON
      00000089H   SFRSYM    DATA     BYTE      TMOD
      00000098H   SFRSYM    DATA     BYTE      SCON
      000000F1H   SFRSYM    DATA     BYTE      CANICR
      00000087H   SFRSYM    DATA     BYTE      PCON
      000000BCH   SFRSYM    DATA     BYTE      ADC_CONTR
      000000E7H   SFRSYM    DATA     BYTE      CMPCR2
      000000E6H   SFRSYM    DATA     BYTE      CMPCR1
      000000DEH   SFRSYM    DATA     BYTE      ADCCFG
      000000B8H   SFRSYM    DATA     BYTE      IP
      0000008FH   SFRSYM    DATA     BYTE      INTCLKO
      000000EEH   SFRSYM    DATA     BYTE      IP3H
      000000B6H   SFRSYM    DATA     BYTE      IP2H
      000000A8H   SFRSYM    DATA     BYTE      IE
L251 LINKER/LOCATER V4.66.93.0                                                        09/21/2022  15:24:00  PAGE 15


      000000BBH   SFRSYM    DATA     BYTE      P_SW3
      000000BAH   SFRSYM    DATA     BYTE      P_SW2
      000000A2H   SFRSYM    DATA     BYTE      P_SW1
      000000CEH   SFRSYM    DATA     BYTE      SPCTL
      000000F8H   SFRSYM    DATA     BYTE      P7
      000000A8H.7 SFRSYM    DATA     BIT       EA
      000000E8H   SFRSYM    DATA     BYTE      P6
      000000C8H   SFRSYM    DATA     BYTE      P5
      000000C0H   SFRSYM    DATA     BYTE      P4
      000000B0H   SFRSYM    DATA     BYTE      P3
      000000A0H   SFRSYM    DATA     BYTE      P2
      00000090H   SFRSYM    DATA     BYTE      P1
      00000080H   SFRSYM    DATA     BYTE      P0
      REG=3       REGSYM    ---      ---       pxEventBits
      FFFFFFF1H   STKSYM    ---      ---       xEventGroup
      DR12        REGSYM    ---      DWORD     uxBitsToSet
      FFFFFFE7H   STKSYM    ---      DWORD     uxBitsToWaitFor
      FFFFFFE3H   STKSYM    ---      DWORD     xTicksToWait
      FFFFFFFDH   STKSYM    ---      DWORD     uxOriginalBitValue
      FFFFFFF9H   STKSYM    ---      DWORD     uxReturn
      FFFFFFF5H   STKSYM    ---      ---       pxEventBits
      R11         REGSYM    ---      CHAR      xAlreadyYielded
      REG=0       REGSYM    ---      ---       xEventGroup
      DR12        REGSYM    ---      DWORD     uxBitsToWaitFor
      FFFFFFF0H   STKSYM    ---      CHAR      xClearOnExit
      FFFFFFE9H   STKSYM    ---      CHAR      xWaitForAllBits
      FFFFFFE5H   STKSYM    ---      DWORD     xTicksToWait
      FFFFFFFDH   STKSYM    ---      ---       pxEventBits
      FFFFFFF9H   STKSYM    ---      DWORD     uxReturn
      FFFFFFF5H   STKSYM    ---      DWORD     uxControlBits
      R11         REGSYM    ---      CHAR      xWaitConditionMet
      R11         REGSYM    ---      CHAR      xAlreadyYielded
      FFFFFFF1H   STKSYM    ---      DWORD     uxCurrentEventBits
      REG=0       REGSYM    ---      ---       xEventGroup
      DR8         REGSYM    ---      DWORD     uxBitsToClear
      REG=7       REGSYM    ---      ---       pxEventBits
      DR4         REGSYM    ---      DWORD     uxReturn
      REG=0       REGSYM    ---      ---       xEventGroup
      REG=0       REGSYM    ---      ---       pxEventBits
      DR4         REGSYM    ---      DWORD     uxReturn
      REG=0       REGSYM    ---      ---       xEventGroup
      DR12        REGSYM    ---      DWORD     uxBitsToSet
      FFFFFFFDH   STKSYM    ---      ---       pxListItem
      FFFFFFF9H   STKSYM    ---      ---       pxNext
      FFFFFFF5H   STKSYM    ---      ---       pxListEnd
      FFFFFFF1H   STKSYM    ---      ---       pxList
      FFFFFFEDH   STKSYM    ---      DWORD     uxBitsToClear
      DR12        REGSYM    ---      DWORD     uxBitsWaitedFor
      FFFFFFE9H   STKSYM    ---      DWORD     uxControlBits
      FFFFFFE5H   STKSYM    ---      ---       pxEventBits
      FFFFFFE4H   STKSYM    ---      CHAR      xMatchFound
      REG=0       REGSYM    ---      ---       xEventGroup
      FFFFFFFDH   STKSYM    ---      ---       pxEventBits
      REG=3       REGSYM    ---      ---       pxTasksWaitingForBits
      REG=7       REGSYM    ---      ---       pvEventGroup
      DR8         REGSYM    ---      DWORD     ulBitsToSet
      REG=7       REGSYM    ---      ---       pvEventGroup
      DR8         REGSYM    ---      DWORD     ulBitsToClear
      DR24        REGSYM    ---      DWORD     uxCurrentEventBits
      DR28        REGSYM    ---      DWORD     uxBitsToWaitFor
      R10         REGSYM    ---      CHAR      xWaitForAllBits
      R11         REGSYM    ---      CHAR      xWaitConditionMet

      ---         MODULE    ---      ---       list
      000000D0H   SFRSYM    DATA     BYTE      PSW
L251 LINKER/LOCATER V4.66.93.0                                                        09/21/2022  15:24:00  PAGE 16


      0000009DH   SFRSYM    DATA     BYTE      IRCBAND
      00000097H   SFRSYM    DATA     BYTE      AUXR2
      000000EFH   SFRSYM    DATA     BYTE      AUXINTIF
      000000FDH   SFRSYM    DATA     BYTE      S4CON
      000000ACH   SFRSYM    DATA     BYTE      S3CON
      0000009AH   SFRSYM    DATA     BYTE      S2CON
      000000B7H   SFRSYM    DATA     BYTE      IPH
      000000CDH   SFRSYM    DATA     BYTE      SPSTAT
      000000DDH   SFRSYM    DATA     BYTE      T4T3M
      000000C1H   SFRSYM    DATA     BYTE      WDT_CONTR
      000000DFH   SFRSYM    DATA     BYTE      IP3
      000000F4H   SFRSYM    DATA     BYTE      USBCON
      000000B5H   SFRSYM    DATA     BYTE      IP2
      000000FFH   SFRSYM    DATA     BYTE      RSTCFG
      000000C7H   SFRSYM    DATA     BYTE      IAP_CONTR
      000000F9H   SFRSYM    DATA     BYTE      LINICR
      0000008EH   SFRSYM    DATA     BYTE      AUXR
      000000AFH   SFRSYM    DATA     BYTE      IE2
      00000088H   SFRSYM    DATA     BYTE      TCON
      00000089H   SFRSYM    DATA     BYTE      TMOD
      00000098H   SFRSYM    DATA     BYTE      SCON
      000000F1H   SFRSYM    DATA     BYTE      CANICR
      00000087H   SFRSYM    DATA     BYTE      PCON
      000000BCH   SFRSYM    DATA     BYTE      ADC_CONTR
      000000E7H   SFRSYM    DATA     BYTE      CMPCR2
      000000E6H   SFRSYM    DATA     BYTE      CMPCR1
      000000DEH   SFRSYM    DATA     BYTE      ADCCFG
      000000B8H   SFRSYM    DATA     BYTE      IP
      0000008FH   SFRSYM    DATA     BYTE      INTCLKO
      000000EEH   SFRSYM    DATA     BYTE      IP3H
      000000B6H   SFRSYM    DATA     BYTE      IP2H
      000000A8H   SFRSYM    DATA     BYTE      IE
      000000BBH   SFRSYM    DATA     BYTE      P_SW3
      000000BAH   SFRSYM    DATA     BYTE      P_SW2
      000000A2H   SFRSYM    DATA     BYTE      P_SW1
      000000CEH   SFRSYM    DATA     BYTE      SPCTL
      000000F8H   SFRSYM    DATA     BYTE      P7
      000000E8H   SFRSYM    DATA     BYTE      P6
      000000C8H   SFRSYM    DATA     BYTE      P5
      000000C0H   SFRSYM    DATA     BYTE      P4
      000000B0H   SFRSYM    DATA     BYTE      P3
      000000A0H   SFRSYM    DATA     BYTE      P2
      00000090H   SFRSYM    DATA     BYTE      P1
      00000080H   SFRSYM    DATA     BYTE      P0
      REG=7       REGSYM    ---      ---       pxList
      REG=2       REGSYM    ---      ---       pxItem
      REG=6       REGSYM    ---      ---       pxList
      REG=7       REGSYM    ---      ---       pxNewListItem
      REG=1       REGSYM    ---      ---       pxIndex
      REG=6       REGSYM    ---      ---       pxList
      REG=7       REGSYM    ---      ---       pxNewListItem
      REG=5       REGSYM    ---      ---       pxIterator
      DR4         REGSYM    ---      DWORD     xValueOfInsertion
      REG=7       REGSYM    ---      ---       pxItemToRemove
      REG=1       REGSYM    ---      ---       pxList

      ---         MODULE    ---      ---       queue
      000000D0H   SFRSYM    DATA     BYTE      PSW
      0000009DH   SFRSYM    DATA     BYTE      IRCBAND
      00000097H   SFRSYM    DATA     BYTE      AUXR2
      000000EFH   SFRSYM    DATA     BYTE      AUXINTIF
      000000FDH   SFRSYM    DATA     BYTE      S4CON
      000000ACH   SFRSYM    DATA     BYTE      S3CON
      0000009AH   SFRSYM    DATA     BYTE      S2CON
      000000B7H   SFRSYM    DATA     BYTE      IPH
L251 LINKER/LOCATER V4.66.93.0                                                        09/21/2022  15:24:00  PAGE 17


      000000CDH   SFRSYM    DATA     BYTE      SPSTAT
      000000DDH   SFRSYM    DATA     BYTE      T4T3M
      000000C1H   SFRSYM    DATA     BYTE      WDT_CONTR
      000000DFH   SFRSYM    DATA     BYTE      IP3
      000000F4H   SFRSYM    DATA     BYTE      USBCON
      000000B5H   SFRSYM    DATA     BYTE      IP2
      000000FFH   SFRSYM    DATA     BYTE      RSTCFG
      000000C7H   SFRSYM    DATA     BYTE      IAP_CONTR
      000000F9H   SFRSYM    DATA     BYTE      LINICR
      0000008EH   SFRSYM    DATA     BYTE      AUXR
      000000AFH   SFRSYM    DATA     BYTE      IE2
      00000088H   SFRSYM    DATA     BYTE      TCON
      00000089H   SFRSYM    DATA     BYTE      TMOD
      00000098H   SFRSYM    DATA     BYTE      SCON
      000000F1H   SFRSYM    DATA     BYTE      CANICR
      00000087H   SFRSYM    DATA     BYTE      PCON
      000000BCH   SFRSYM    DATA     BYTE      ADC_CONTR
      000000E7H   SFRSYM    DATA     BYTE      CMPCR2
      000000E6H   SFRSYM    DATA     BYTE      CMPCR1
      000000DEH   SFRSYM    DATA     BYTE      ADCCFG
      000000B8H   SFRSYM    DATA     BYTE      IP
      0000008FH   SFRSYM    DATA     BYTE      INTCLKO
      000000EEH   SFRSYM    DATA     BYTE      IP3H
      000000B6H   SFRSYM    DATA     BYTE      IP2H
      000000A8H   SFRSYM    DATA     BYTE      IE
      000000BBH   SFRSYM    DATA     BYTE      P_SW3
      000000BAH   SFRSYM    DATA     BYTE      P_SW2
      000000A2H   SFRSYM    DATA     BYTE      P_SW1
      000000CEH   SFRSYM    DATA     BYTE      SPCTL
      000000F8H   SFRSYM    DATA     BYTE      P7
      000000A8H.7 SFRSYM    DATA     BIT       EA
      000000E8H   SFRSYM    DATA     BYTE      P6
      000000C8H   SFRSYM    DATA     BYTE      P5
      000000C0H   SFRSYM    DATA     BYTE      P4
      000000B0H   SFRSYM    DATA     BYTE      P3
      000000A0H   SFRSYM    DATA     BYTE      P2
      00000090H   SFRSYM    DATA     BYTE      P1
      00000080H   SFRSYM    DATA     BYTE      P0
      REG=0       REGSYM    ---      ---       xQueue
      R15         REGSYM    ---      CHAR      xNewQueue
      R14         REGSYM    ---      CHAR      xReturn
      FFFFFFFDH   STKSYM    ---      ---       pxQueue
      R15         REGSYM    ---      BYTE      uxQueueLength
      R14         REGSYM    ---      BYTE      uxItemSize
      R13         REGSYM    ---      BYTE      ucQueueType
      FFFFFFFDH   STKSYM    ---      ---       pxNewQueue
      WR6         REGSYM    ---      WORD      xQueueSizeInBytes
      REG=0       REGSYM    ---      ---       pucQueueStorage
      R11         REGSYM    ---      BYTE      uxQueueLength
      R10         REGSYM    ---      BYTE      uxItemSize
      REG=7       REGSYM    ---      ---       pucQueueStorage
      FFFFFFFBH   STKSYM    ---      ---       pxNewQueue
      REG=7       REGSYM    ---      ---       pxNewQueue
      R7          REGSYM    ---      BYTE      ucQueueType
      REG=3       REGSYM    ---      ---       xNewQueue
      REG=0       REGSYM    ---      ---       xQueue
      REG=3       REGSYM    ---      ---       pvItemToQueue
      FFFFFFEBH   STKSYM    ---      DWORD     xTicksToWait
      FFFFFFF5H   STKSYM    ---      CHAR      xCopyPosition
      00000000H   STKSYM    ---      CHAR      xEntryTimeSet
      FFFFFFFFH   STKSYM    ---      CHAR      xYieldRequired
      FFFFFFFAH   STKSYM    ---      ---       xTimeOut
      FFFFFFF6H   STKSYM    ---      ---       pxQueue
      REG=0       REGSYM    ---      ---       xQueue
      REG=7       REGSYM    ---      ---       pvItemToQueue
L251 LINKER/LOCATER V4.66.93.0                                                        09/21/2022  15:24:00  PAGE 18


      FFFFFFF4H   STKSYM    ---      ---       pxHigherPriorityTaskWoken
      R11         REGSYM    ---      CHAR      xCopyPosition
      00000000H   STKSYM    ---      CHAR      xReturn
      REG=3       REGSYM    ---      ---       pxQueue
      FFFFFFFFH   STKSYM    ---      CHAR      cTxLock
      FFFFFFFEH   STKSYM    ---      BYTE      uxPreviousMessagesWaiting
      REG=0       REGSYM    ---      ---       xQueue
      REG=3       REGSYM    ---      ---       pxHigherPriorityTaskWoken
      00000000H   STKSYM    ---      CHAR      xReturn
      FFFFFFFCH   STKSYM    ---      ---       pxQueue
      R7          REGSYM    ---      BYTE      uxMessagesWaiting
      FFFFFFFBH   STKSYM    ---      CHAR      cTxLock
      REG=0       REGSYM    ---      ---       xQueue
      REG=3       REGSYM    ---      ---       pvBuffer
      FFFFFFECH   STKSYM    ---      DWORD     xTicksToWait
      00000000H   STKSYM    ---      CHAR      xEntryTimeSet
      FFFFFFFBH   STKSYM    ---      ---       xTimeOut
      FFFFFFF7H   STKSYM    ---      ---       pxQueue
      FFFFFFF6H   STKSYM    ---      BYTE      uxMessagesWaiting
      REG=0       REGSYM    ---      ---       xQueue
      FFFFFFF5H   STKSYM    ---      DWORD     xTicksToWait
      00000000H   STKSYM    ---      CHAR      xEntryTimeSet
      FFFFFFFBH   STKSYM    ---      ---       xTimeOut
      REG=3       REGSYM    ---      ---       pxQueue
      FFFFFFFAH   STKSYM    ---      CHAR      xInheritanceOccurred
      FFFFFFF9H   STKSYM    ---      BYTE      uxSemaphoreCount
      R11         REGSYM    ---      BYTE      uxHighestWaitingPriority
      REG=0       REGSYM    ---      ---       xQueue
      REG=3       REGSYM    ---      ---       pvBuffer
      FFFFFFE8H   STKSYM    ---      DWORD     xTicksToWait
      00000000H   STKSYM    ---      CHAR      xEntryTimeSet
      FFFFFFFBH   STKSYM    ---      ---       xTimeOut
      FFFFFFF7H   STKSYM    ---      ---       pcOriginalReadPosition
      FFFFFFF3H   STKSYM    ---      ---       pxQueue
      FFFFFFF2H   STKSYM    ---      BYTE      uxMessagesWaiting
      REG=0       REGSYM    ---      ---       xQueue
      REG=2       REGSYM    ---      ---       pvBuffer
      FFFFFFF4H   STKSYM    ---      ---       pxHigherPriorityTaskWoken
      00000000H   STKSYM    ---      CHAR      xReturn
      REG=3       REGSYM    ---      ---       pxQueue
      FFFFFFFFH   STKSYM    ---      BYTE      uxMessagesWaiting
      FFFFFFFEH   STKSYM    ---      CHAR      cRxLock
      REG=0       REGSYM    ---      ---       xQueue
      REG=2       REGSYM    ---      ---       pvBuffer
      00000000H   STKSYM    ---      CHAR      xReturn
      FFFFFFFCH   STKSYM    ---      ---       pcOriginalReadPosition
      REG=3       REGSYM    ---      ---       pxQueue
      REG=0       REGSYM    ---      ---       xQueue
      R11         REGSYM    ---      BYTE      uxReturn
      REG=0       REGSYM    ---      ---       xQueue
      R11         REGSYM    ---      BYTE      uxReturn
      REG=1       REGSYM    ---      ---       pxQueue
      REG=0       REGSYM    ---      ---       xQueue
      R11         REGSYM    ---      BYTE      uxReturn
      REG=1       REGSYM    ---      ---       pxQueue
      REG=0       REGSYM    ---      ---       xQueue
      REG=0       REGSYM    ---      ---       pxQueue
      REG=2       REGSYM    ---      ---       pxQueue
      R15         REGSYM    ---      BYTE      uxHighestPriorityOfWaitingTasks
      REG=3       REGSYM    ---      ---       pxQueue
      FFFFFFFBH   STKSYM    ---      ---       pvItemToQueue
      FFFFFFFAH   STKSYM    ---      CHAR      xPosition
      00000000H   STKSYM    ---      CHAR      xReturn
      FFFFFFFFH   STKSYM    ---      BYTE      uxMessagesWaiting
      REG=7       REGSYM    ---      ---       pxQueue
L251 LINKER/LOCATER V4.66.93.0                                                        09/21/2022  15:24:00  PAGE 19


      REG=6       REGSYM    ---      ---       pvBuffer
      REG=3       REGSYM    ---      ---       pxQueue
      00000000H   STKSYM    ---      CHAR      cTxLock
      00000000H   STKSYM    ---      CHAR      cRxLock
      REG=0       REGSYM    ---      ---       pxQueue
      R10         REGSYM    ---      CHAR      xReturn
      REG=0       REGSYM    ---      ---       xQueue
      R10         REGSYM    ---      CHAR      xReturn
      REG=1       REGSYM    ---      ---       pxQueue
      REG=2       REGSYM    ---      ---       pxQueue
      R15         REGSYM    ---      CHAR      xReturn
      REG=0       REGSYM    ---      ---       xQueue
      R10         REGSYM    ---      CHAR      xReturn
      REG=0       REGSYM    ---      ---       pxQueue

      ---         MODULE    ---      ---       stream_buffer
      000000D0H   SFRSYM    DATA     BYTE      PSW
      0000009DH   SFRSYM    DATA     BYTE      IRCBAND
      00000097H   SFRSYM    DATA     BYTE      AUXR2
      000000EFH   SFRSYM    DATA     BYTE      AUXINTIF
      000000FDH   SFRSYM    DATA     BYTE      S4CON
      000000ACH   SFRSYM    DATA     BYTE      S3CON
      0000009AH   SFRSYM    DATA     BYTE      S2CON
      000000B7H   SFRSYM    DATA     BYTE      IPH
      000000CDH   SFRSYM    DATA     BYTE      SPSTAT
      000000DDH   SFRSYM    DATA     BYTE      T4T3M
      000000C1H   SFRSYM    DATA     BYTE      WDT_CONTR
      000000DFH   SFRSYM    DATA     BYTE      IP3
      000000F4H   SFRSYM    DATA     BYTE      USBCON
      000000B5H   SFRSYM    DATA     BYTE      IP2
      000000FFH   SFRSYM    DATA     BYTE      RSTCFG
      000000C7H   SFRSYM    DATA     BYTE      IAP_CONTR
      000000F9H   SFRSYM    DATA     BYTE      LINICR
      0000008EH   SFRSYM    DATA     BYTE      AUXR
      000000AFH   SFRSYM    DATA     BYTE      IE2
      00000088H   SFRSYM    DATA     BYTE      TCON
      00000089H   SFRSYM    DATA     BYTE      TMOD
      00000098H   SFRSYM    DATA     BYTE      SCON
      000000F1H   SFRSYM    DATA     BYTE      CANICR
      00000087H   SFRSYM    DATA     BYTE      PCON
      000000BCH   SFRSYM    DATA     BYTE      ADC_CONTR
      000000E7H   SFRSYM    DATA     BYTE      CMPCR2
      000000E6H   SFRSYM    DATA     BYTE      CMPCR1
      000000DEH   SFRSYM    DATA     BYTE      ADCCFG
      000000B8H   SFRSYM    DATA     BYTE      IP
      0000008FH   SFRSYM    DATA     BYTE      INTCLKO
      000000EEH   SFRSYM    DATA     BYTE      IP3H
      000000B6H   SFRSYM    DATA     BYTE      IP2H
      000000A8H   SFRSYM    DATA     BYTE      IE
      000000BBH   SFRSYM    DATA     BYTE      P_SW3
      000000BAH   SFRSYM    DATA     BYTE      P_SW2
      000000A2H   SFRSYM    DATA     BYTE      P_SW1
      000000CEH   SFRSYM    DATA     BYTE      SPCTL
      000000F8H   SFRSYM    DATA     BYTE      P7
      000000A8H.7 SFRSYM    DATA     BIT       EA
      000000E8H   SFRSYM    DATA     BYTE      P6
      000000C8H   SFRSYM    DATA     BYTE      P5
      000000C0H   SFRSYM    DATA     BYTE      P4
      000000B0H   SFRSYM    DATA     BYTE      P3
      000000A0H   SFRSYM    DATA     BYTE      P2
      00000090H   SFRSYM    DATA     BYTE      P1
      00000080H   SFRSYM    DATA     BYTE      P0
      WR14        REGSYM    ---      WORD      xBufferSizeBytes
      WR12        REGSYM    ---      WORD      xTriggerLevelBytes
      R3          REGSYM    ---      CHAR      xIsMessageBuffer
L251 LINKER/LOCATER V4.66.93.0                                                        09/21/2022  15:24:00  PAGE 20


      FFFFFFFDH   STKSYM    ---      ---       pucAllocatedMemory
      FFFFFFFCH   STKSYM    ---      BYTE      ucFlags
      REG=0       REGSYM    ---      ---       xStreamBuffer
      REG=0       REGSYM    ---      ---       pxStreamBuffer
      REG=0       REGSYM    ---      ---       xStreamBuffer
      REG=0       REGSYM    ---      ---       pxStreamBuffer
      R11         REGSYM    ---      CHAR      xReturn
      REG=0       REGSYM    ---      ---       xStreamBuffer
      WR10        REGSYM    ---      WORD      xTriggerLevel
      REG=1       REGSYM    ---      ---       pxStreamBuffer
      R9          REGSYM    ---      CHAR      xReturn
      REG=0       REGSYM    ---      ---       xStreamBuffer
      REG=0       REGSYM    ---      ---       pxStreamBuffer
      WR6         REGSYM    ---      WORD      xSpace
      WR10        REGSYM    ---      WORD      xOriginalTail
      REG=0       REGSYM    ---      ---       xStreamBuffer
      REG=0       REGSYM    ---      ---       pxStreamBuffer
      WR6         REGSYM    ---      WORD      xReturn
      REG=0       REGSYM    ---      ---       xStreamBuffer
      REG=3       REGSYM    ---      ---       pvTxData
      FFFFFFECH   STKSYM    ---      WORD      xDataLengthBytes
      FFFFFFE8H   STKSYM    ---      DWORD     xTicksToWait
      FFFFFFFDH   STKSYM    ---      ---       pxStreamBuffer
      WR14        REGSYM    ---      WORD      xReturn
      FFFFFFFBH   STKSYM    ---      WORD      xSpace
      FFFFFFF9H   STKSYM    ---      WORD      xRequiredSpace
      FFFFFFF4H   STKSYM    ---      ---       xTimeOut
      WR6         REGSYM    ---      WORD      xMaxReportedSpace
      REG=0       REGSYM    ---      ---       xStreamBuffer
      REG=3       REGSYM    ---      ---       pvTxData
      FFFFFFF3H   STKSYM    ---      WORD      xDataLengthBytes
      FFFFFFEFH   STKSYM    ---      ---       pxHigherPriorityTaskWoken
      FFFFFFFDH   STKSYM    ---      ---       pxStreamBuffer
      WR14        REGSYM    ---      WORD      xReturn
      WR6         REGSYM    ---      WORD      xSpace
      FFFFFFFBH   STKSYM    ---      WORD      xRequiredSpace
      REG=3       REGSYM    ---      ---       pxStreamBuffer
      FFFFFFFDH   STKSYM    ---      ---       pvTxData
      FFFFFFF5H   STKSYM    ---      WORD      xDataLengthBytes
      FFFFFFF3H   STKSYM    ---      WORD      xSpace
      FFFFFFF1H   STKSYM    ---      WORD      xRequiredSpace
      WR4         REGSYM    ---      WORD      xNextHead
      REG=0       REGSYM    ---      ---       xStreamBuffer
      REG=3       REGSYM    ---      ---       pvRxData
      FFFFFFEFH   STKSYM    ---      WORD      xBufferLengthBytes
      FFFFFFEBH   STKSYM    ---      DWORD     xTicksToWait
      FFFFFFFDH   STKSYM    ---      ---       pxStreamBuffer
      FFFFFFFBH   STKSYM    ---      WORD      xReceivedLength
      FFFFFFF9H   STKSYM    ---      WORD      xBytesAvailable
      FFFFFFF7H   STKSYM    ---      WORD      xBytesToStoreMessageLength
      REG=0       REGSYM    ---      ---       xStreamBuffer
      REG=3       REGSYM    ---      ---       pxStreamBuffer
      FFFFFFFFH   STKSYM    ---      WORD      xReturn
      WR6         REGSYM    ---      WORD      xBytesAvailable
      FFFFFFFDH   STKSYM    ---      WORD      xTempReturn
      REG=0       REGSYM    ---      ---       xStreamBuffer
      REG=3       REGSYM    ---      ---       pvRxData
      FFFFFFF1H   STKSYM    ---      WORD      xBufferLengthBytes
      FFFFFFEDH   STKSYM    ---      ---       pxHigherPriorityTaskWoken
      FFFFFFFDH   STKSYM    ---      ---       pxStreamBuffer
      FFFFFFFBH   STKSYM    ---      WORD      xReceivedLength
      WR6         REGSYM    ---      WORD      xBytesAvailable
      FFFFFFF9H   STKSYM    ---      WORD      xBytesToStoreMessageLength
      REG=3       REGSYM    ---      ---       pxStreamBuffer
      FFFFFFF7H   STKSYM    ---      ---       pvRxData
L251 LINKER/LOCATER V4.66.93.0                                                        09/21/2022  15:24:00  PAGE 21


      FFFFFFEFH   STKSYM    ---      WORD      xBufferLengthBytes
      FFFFFFEDH   STKSYM    ---      WORD      xBytesAvailable
      FFFFFFFFH   STKSYM    ---      WORD      xCount
      FFFFFFFDH   STKSYM    ---      WORD      xNextMessageLength
      FFFFFFFBH   STKSYM    ---      WORD      xTempNextMessageLength
      WR6         REGSYM    ---      WORD      xNextTail
      REG=0       REGSYM    ---      ---       xStreamBuffer
      REG=0       REGSYM    ---      ---       pxStreamBuffer
      R10         REGSYM    ---      CHAR      xReturn
      WR4         REGSYM    ---      WORD      xTail
      REG=7       REGSYM    ---      ---       xStreamBuffer
      R15         REGSYM    ---      CHAR      xReturn
      WR12        REGSYM    ---      WORD      xBytesToStoreMessageLength
      REG=1       REGSYM    ---      ---       pxStreamBuffer
      REG=0       REGSYM    ---      ---       xStreamBuffer
      REG=2       REGSYM    ---      ---       pxHigherPriorityTaskWoken
      REG=3       REGSYM    ---      ---       pxStreamBuffer
      00000000H   STKSYM    ---      CHAR      xReturn
      REG=0       REGSYM    ---      ---       xStreamBuffer
      REG=2       REGSYM    ---      ---       pxHigherPriorityTaskWoken
      REG=3       REGSYM    ---      ---       pxStreamBuffer
      00000000H   STKSYM    ---      CHAR      xReturn
      REG=3       REGSYM    ---      ---       pxStreamBuffer
      FFFFFFFBH   STKSYM    ---      ---       pucData
      FFFFFFF3H   STKSYM    ---      WORD      xCount
      FFFFFFF1H   STKSYM    ---      WORD      xHead
      FFFFFFFFH   STKSYM    ---      WORD      xFirstLength
      REG=3       REGSYM    ---      ---       pxStreamBuffer
      FFFFFFFBH   STKSYM    ---      ---       pucData
      FFFFFFF3H   STKSYM    ---      WORD      xCount
      FFFFFFF1H   STKSYM    ---      WORD      xTail
      FFFFFFFFH   STKSYM    ---      WORD      xFirstLength
      REG=2       REGSYM    ---      ---       pxStreamBuffer
      WR6         REGSYM    ---      WORD      xCount
      REG=3       REGSYM    ---      ---       pxStreamBuffer
      FFFFFFFDH   STKSYM    ---      ---       pucBuffer
      FFFFFFF4H   STKSYM    ---      WORD      xBufferSizeBytes
      FFFFFFF2H   STKSYM    ---      WORD      xTriggerLevelBytes
      FFFFFFFCH   STKSYM    ---      BYTE      ucFlags

      ---         MODULE    ---      ---       tasks
      00FF041CH   PUBLIC    HCONST   BYTE      uxTopUsedPriority
      00FF0451H   PUBLIC    CODE     ---       xTaskIncrementTick?_
      00FF0698H   PUBLIC    CODE     ---       vTaskSwitchContext?_
      00000A5EH   PUBLIC    EDATA    ---       pxCurrentTCB
      000000D0H   SFRSYM    DATA     BYTE      PSW
      0000009DH   SFRSYM    DATA     BYTE      IRCBAND
      00000097H   SFRSYM    DATA     BYTE      AUXR2
      000000EFH   SFRSYM    DATA     BYTE      AUXINTIF
      000000FDH   SFRSYM    DATA     BYTE      S4CON
      000000ACH   SFRSYM    DATA     BYTE      S3CON
      0000009AH   SFRSYM    DATA     BYTE      S2CON
      000000B7H   SFRSYM    DATA     BYTE      IPH
      000000CDH   SFRSYM    DATA     BYTE      SPSTAT
      000000DDH   SFRSYM    DATA     BYTE      T4T3M
      000000C1H   SFRSYM    DATA     BYTE      WDT_CONTR
      000000DFH   SFRSYM    DATA     BYTE      IP3
      000000F4H   SFRSYM    DATA     BYTE      USBCON
      000000B5H   SFRSYM    DATA     BYTE      IP2
      000000FFH   SFRSYM    DATA     BYTE      RSTCFG
      000000C7H   SFRSYM    DATA     BYTE      IAP_CONTR
      000000F9H   SFRSYM    DATA     BYTE      LINICR
      0000008EH   SFRSYM    DATA     BYTE      AUXR
      000000AFH   SFRSYM    DATA     BYTE      IE2
      00000088H   SFRSYM    DATA     BYTE      TCON
L251 LINKER/LOCATER V4.66.93.0                                                        09/21/2022  15:24:00  PAGE 22


      00000089H   SFRSYM    DATA     BYTE      TMOD
      00000098H   SFRSYM    DATA     BYTE      SCON
      000000F1H   SFRSYM    DATA     BYTE      CANICR
      00000087H   SFRSYM    DATA     BYTE      PCON
      000000BCH   SFRSYM    DATA     BYTE      ADC_CONTR
      000000E7H   SFRSYM    DATA     BYTE      CMPCR2
      000000E6H   SFRSYM    DATA     BYTE      CMPCR1
      000000DEH   SFRSYM    DATA     BYTE      ADCCFG
      000000B8H   SFRSYM    DATA     BYTE      IP
      0000008FH   SFRSYM    DATA     BYTE      INTCLKO
      000000EEH   SFRSYM    DATA     BYTE      IP3H
      000000B6H   SFRSYM    DATA     BYTE      IP2H
      000000A8H   SFRSYM    DATA     BYTE      IE
      000000BBH   SFRSYM    DATA     BYTE      P_SW3
      000000BAH   SFRSYM    DATA     BYTE      P_SW2
      000000A2H   SFRSYM    DATA     BYTE      P_SW1
      000000CEH   SFRSYM    DATA     BYTE      SPCTL
      000000F8H   SFRSYM    DATA     BYTE      P7
      000000A8H.7 SFRSYM    DATA     BIT       EA
      000000E8H   SFRSYM    DATA     BYTE      P6
      000000C8H   SFRSYM    DATA     BYTE      P5
      000000C0H   SFRSYM    DATA     BYTE      P4
      000000B0H   SFRSYM    DATA     BYTE      P3
      000000A0H   SFRSYM    DATA     BYTE      P2
      00000090H   SFRSYM    DATA     BYTE      P1
      00000080H   SFRSYM    DATA     BYTE      P0
      00FF0423H   SYMBOL    CODE     ---       prvResetNextTaskUnblockTime?_
      00000811H   SYMBOL    EDATA    ---       pxReadyTasksLists
      00000A31H   SYMBOL    EDATA    CHAR      xSchedulerRunning
      00000A32H   SYMBOL    EDATA    BYTE      uxTopReadyPriority
      00000A33H   SYMBOL    EDATA    BYTE      uxCurrentNumberOfTasks
      00000A34H   SYMBOL    EDATA    DWORD     xTickCount
      00000A38H   SYMBOL    EDATA    DWORD     xNextTaskUnblockTime
      00000A3CH   SYMBOL    EDATA    ---       xDelayedTaskList1
      00000A4DH   SYMBOL    EDATA    ---       xDelayedTaskList2
      00000A62H   SYMBOL    EDATA    CHAR      xNumOfOverflows
      00000A63H   SYMBOL    EDATA    ---       pxOverflowDelayedTaskList
      00000A67H   SYMBOL    EDATA    BYTE      uxDeletedTasksWaitingCleanUp
      00000A68H   SYMBOL    EDATA    CHAR      xYieldPending
      00000A69H   SYMBOL    EDATA    BYTE      uxSchedulerSuspended
      00000A6AH   SYMBOL    EDATA    DWORD     xPendedTicks
      00000A6EH   SYMBOL    EDATA    ---       xPendingReadyList
      00000A7FH   SYMBOL    EDATA    ---       pxDelayedTaskList
      00000A83H   SYMBOL    EDATA    ---       xIdleTaskHandle
      00000A87H   SYMBOL    EDATA    ---       xSuspendedTaskList
      00000A98H   SYMBOL    EDATA    ---       xTasksWaitingTermination
      00000AA9H   SYMBOL    EDATA    BYTE      uxTaskNumber
      FFFFFFFBH   STKSYM    ---      ---       pxTaskCode
      FFFFFFF7H   STKSYM    ---      ---       pcName
      WR14        REGSYM    ---      WORD      usStackDepth
      FFFFFFEDH   STKSYM    ---      ---       pvParameters
      R13         REGSYM    ---      BYTE      uxPriority
      FFFFFFE9H   STKSYM    ---      ---       pxCreatedTask
      FFFFFFFDH   STKSYM    ---      ---       pxNewTCB
      R12         REGSYM    ---      CHAR      xReturn
      REG=6       REGSYM    ---      ---       pxTaskCode
      REG=7       REGSYM    ---      ---       pcName
      FFFFFFF4H   STKSYM    ---      DWORD     ulStackDepth
      FFFFFFF0H   STKSYM    ---      ---       pvParameters
      R15         REGSYM    ---      BYTE      uxPriority
      FFFFFFECH   STKSYM    ---      ---       pxCreatedTask
      FFFFFFE8H   STKSYM    ---      ---       pxNewTCB
      FFFFFFFDH   STKSYM    ---      ---       pxTopOfStack
      R10         REGSYM    ---      BYTE      x
      REG=3       REGSYM    ---      ---       pxNewTCB
L251 LINKER/LOCATER V4.66.93.0                                                        09/21/2022  15:24:00  PAGE 23


      REG=0       REGSYM    ---      ---       pxIndex
      REG=0       REGSYM    ---      ---       xTaskToDelete
      REG=3       REGSYM    ---      ---       pxTCB
      REG=3       REGSYM    ---      ---       pxPreviousWakeTime
      FFFFFFFCH   STKSYM    ---      DWORD     xTimeIncrement
      DR4         REGSYM    ---      DWORD     xTimeToWake
      R11         REGSYM    ---      CHAR      xAlreadyYielded
      00000000H   STKSYM    ---      CHAR      xShouldDelay
      DR0         REGSYM    ---      DWORD     xConstTickCount
      DR12        REGSYM    ---      DWORD     xTicksToDelay
      R11         REGSYM    ---      CHAR      xAlreadyYielded
      REG=0       REGSYM    ---      ---       xTask
      REG=1       REGSYM    ---      ---       pxTCB
      R11         REGSYM    ---      BYTE      uxReturn
      REG=0       REGSYM    ---      ---       xTask
      REG=1       REGSYM    ---      ---       pxTCB
      R11         REGSYM    ---      BYTE      uxReturn
      REG=0       REGSYM    ---      ---       xTask
      R10         REGSYM    ---      BYTE      uxNewPriority
      REG=3       REGSYM    ---      ---       pxTCB
      R6          REGSYM    ---      BYTE      uxCurrentBasePriority
      R2          REGSYM    ---      BYTE      uxPriorityUsedOnEntry
      00000000H   STKSYM    ---      CHAR      xYieldRequired
      REG=0       REGSYM    ---      ---       pxIndex
      REG=0       REGSYM    ---      ---       xTaskToSuspend
      REG=3       REGSYM    ---      ---       pxTCB
      REG=0       REGSYM    ---      ---       xTask
      R10         REGSYM    ---      CHAR      xReturn
      REG=0       REGSYM    ---      ---       pxTCB
      REG=0       REGSYM    ---      ---       xTaskToResume
      REG=3       REGSYM    ---      ---       pxTCB
      REG=0       REGSYM    ---      ---       pxIndex
      REG=0       REGSYM    ---      ---       xTaskToResume
      00000000H   STKSYM    ---      CHAR      xYieldRequired
      REG=3       REGSYM    ---      ---       pxTCB
      REG=0       REGSYM    ---      ---       pxIndex
      R11         REGSYM    ---      CHAR      xReturn
      REG=1       REGSYM    ---      ---       pxTCB
      00000000H   STKSYM    ---      CHAR      xAlreadyYielded
      REG=0       REGSYM    ---      ---       pxList
      REG=7       REGSYM    ---      ---       pxList
      REG=6       REGSYM    ---      ---       pxIndex
      DR12        REGSYM    ---      DWORD     xPendedCounts
      DR4         REGSYM    ---      DWORD     xTicks
      DR4         REGSYM    ---      DWORD     xReturn
      REG=0       REGSYM    ---      ---       xTaskToQuery
      REG=1       REGSYM    ---      ---       pxTCB
      DR12        REGSYM    ---      DWORD     xTicksToCatchUp
      R11         REGSYM    ---      CHAR      xYieldOccurred

      00FF0451H   BLOCK     CODE     ---       LVL=0
      00FF0451H   LINE      ---      ---       #2736
      00FF0457H   LINE      ---      ---       #2737
      00FF0457H   BLOCK     CODE     NEAR LAB  LVL=1
      00FF0457H   LINE      ---      ---       #2740
      00FF045CH   LINE      ---      ---       #2747
      00FF0464H   LINE      ---      ---       #2748
      REG=1       REGSYM    ---      ---       pxTCB
      FFFFFFFDH   STKSYM    ---      DWORD     xItemValue
      FFFFFFFCH   STKSYM    ---      CHAR      xSwitchRequired
      00FF0464H   BLOCK     CODE     NEAR LAB  LVL=2
      00FF0464H   LINE      ---      ---       #2751
      00FF046AH   LINE      ---      ---       #2755
      00FF046EH   LINE      ---      ---       #2757
      00FF0470H   LINE      ---      ---       #2759
L251 LINKER/LOCATER V4.66.93.0                                                        09/21/2022  15:24:00  PAGE 24


      DR12        REGSYM    ---      DWORD     xConstTickCount
      00FF0470H   BLOCK     CODE     NEAR LAB  LVL=3
      REG=1       REGSYM    ---      ---       pxTemp
      ---         BLOCKEND  CODE     ---       LVL=3
      00FF048BH   BLOCK     CODE     NEAR LAB  LVL=3
      00FF048BH   LINE      ---      ---       #2760
      00FF048BH   LINE      ---      ---       #2764
      00FF048BH   LINE      ---      ---       #2770
      00FF0495H   LINE      ---      ---       #2772
      00FF0495H   LINE      ---      ---       #2774
      00FF04A5H   LINE      ---      ---       #2781
      00FF04A9H   LINE      ---      ---       #2782
      00FF04ABH   LINE      ---      ---       #2783
      00FF04ABH   LINE      ---      ---       #2790
      00FF04BFH   LINE      ---      ---       #2791
      00FF04CFH   LINE      ---      ---       #2793
      00FF04D3H   LINE      ---      ---       #2800
      00FF04DFH   LINE      ---      ---       #2801
      00FF04E1H   LINE      ---      ---       #2802
      00FF04E1H   LINE      ---      ---       #2806
      00FF04E1H   LINE      ---      ---       #2809
      REG=0       REGSYM    ---      ---       pxList
      ---         BLOCKEND  CODE     ---       LVL=3
      00FF04E1H   BLOCK     CODE     NEAR LAB  LVL=3
      REG=7       REGSYM    ---      ---       pxList
      ---         BLOCKEND  CODE     ---       LVL=3
      00FF054AH   BLOCK     CODE     NEAR LAB  LVL=3
      00FF054AH   LINE      ---      ---       #2813
      00FF0556H   LINE      ---      ---       #2815
      REG=6       REGSYM    ---      ---       pxIndex
      ---         BLOCKEND  CODE     ---       LVL=3
      ---         BLOCKEND  CODE     ---       LVL=2
      ---         BLOCKEND  CODE     ---       LVL=1
      00FF05C1H   LINE      ---      ---       #2816
      00FF05C1H   LINE      ---      ---       #2820
      00FF05C1H   LINE      ---      ---       #2824
      00FF05C1H   LINE      CODE     ---       #2824

      00FF0698H   BLOCK     CODE     ---       LVL=0
      00FF0698H   LINE      ---      ---       #3021
      00FF0698H   LINE      ---      ---       #3023
      00FF069EH   LINE      ---      ---       #3027
      00FF06A4H   LINE      ---      ---       #3028
      00FF06A5H   LINE      ---      ---       #3031
      00FF06AAH   LINE      ---      ---       #3074
      00FF06AAH   BLOCK     CODE     NEAR LAB  LVL=1
      R9          REGSYM    ---      BYTE      uxTopPriority
      00FF06C9H   BLOCK     CODE     NEAR LAB  LVL=2
      REG=1       REGSYM    ---      ---       pxConstList
      ---         BLOCKEND  CODE     ---       LVL=2
      ---         BLOCKEND  CODE     ---       LVL=1
      ---         BLOCKEND  CODE     ---       LVL=0
      REG=2       REGSYM    ---      ---       pxEventList
      DR12        REGSYM    ---      DWORD     xTicksToWait
      REG=7       REGSYM    ---      ---       pxEventList
      DR8         REGSYM    ---      DWORD     xItemValue
      FFFFFFFBH   STKSYM    ---      DWORD     xTicksToWait
      REG=0       REGSYM    ---      ---       pxIndex
      REG=2       REGSYM    ---      ---       pxEventList
      REG=0       REGSYM    ---      ---       pxUnblockedTCB
      R15         REGSYM    ---      CHAR      xReturn
      REG=1       REGSYM    ---      ---       pxList
      REG=1       REGSYM    ---      ---       pxList
      REG=2       REGSYM    ---      ---       pxIndex
      REG=2       REGSYM    ---      ---       pxIndex
L251 LINKER/LOCATER V4.66.93.0                                                        09/21/2022  15:24:00  PAGE 25


      REG=7       REGSYM    ---      ---       pxEventListItem
      DR4         REGSYM    ---      DWORD     xItemValue
      REG=0       REGSYM    ---      ---       pxUnblockedTCB
      REG=1       REGSYM    ---      ---       pxList
      REG=1       REGSYM    ---      ---       pxList
      REG=2       REGSYM    ---      ---       pxIndex
      REG=2       REGSYM    ---      ---       pxTimeOut
      REG=2       REGSYM    ---      ---       pxTimeOut
      REG=6       REGSYM    ---      ---       pxTimeOut
      REG=7       REGSYM    ---      ---       pxTicksToWait
      R15         REGSYM    ---      CHAR      xReturn
      DR8         REGSYM    ---      DWORD     xConstTickCount
      DR0         REGSYM    ---      DWORD     xElapsedTime
      R15         REGSYM    ---      BYTE      uxPriority
      REG=3       REGSYM    ---      ---       pxTCB
      REG=3       REGSYM    ---      ---       pxTCB

      00FF0423H   BLOCK     CODE     ---       LVL=0
      00FF0423H   LINE      ---      ---       #4006
      00FF0423H   LINE      ---      ---       #4008
      00FF0433H   LINE      ---      ---       #4014
      00FF0437H   LINE      ---      ---       #4015
      00FF0439H   LINE      ---      ---       #4022
      00FF0450H   LINE      ---      ---       #4023
      00FF0450H   LINE      ---      ---       #4024
      ---         BLOCKEND  ---      ---       LVL=0
      REG=1       REGSYM    ---      ---       xReturn
      REG=0       REGSYM    ---      ---       pxMutexHolder
      REG=3       REGSYM    ---      ---       pxMutexHolderTCB
      R11         REGSYM    ---      CHAR      xReturn
      REG=0       REGSYM    ---      ---       pxIndex
      REG=0       REGSYM    ---      ---       pxMutexHolder
      REG=3       REGSYM    ---      ---       pxTCB
      R10         REGSYM    ---      CHAR      xReturn
      REG=0       REGSYM    ---      ---       pxIndex
      REG=0       REGSYM    ---      ---       pxMutexHolder
      R11         REGSYM    ---      BYTE      uxHighestPriorityWaitingTask
      REG=3       REGSYM    ---      ---       pxTCB
      R2          REGSYM    ---      BYTE      uxPriorityUsedOnEntry
      00000000H   STKSYM    ---      BYTE      uxPriorityToUse
      REG=0       REGSYM    ---      ---       pxIndex
      DR4         REGSYM    ---      DWORD     uxReturn
      R15         REGSYM    ---      BYTE      uxIndexToWait
      R14         REGSYM    ---      CHAR      xClearCountOnExit
      DR28        REGSYM    ---      DWORD     xTicksToWait
      DR4         REGSYM    ---      DWORD     ulReturn
      R15         REGSYM    ---      BYTE      uxIndexToWait
      DR28        REGSYM    ---      DWORD     ulBitsToClearOnEntry
      FFFFFFFDH   STKSYM    ---      DWORD     ulBitsToClearOnExit
      FFFFFFF5H   STKSYM    ---      ---       pulNotificationValue
      FFFFFFF1H   STKSYM    ---      DWORD     xTicksToWait
      R14         REGSYM    ---      CHAR      xReturn
      REG=0       REGSYM    ---      ---       xTaskToNotify
      R9          REGSYM    ---      BYTE      uxIndexToNotify
      DR24        REGSYM    ---      DWORD     ulValue
      FFFFFFFCH   STKSYM    ---      INT       eAction
      FFFFFFF8H   STKSYM    ---      ---       pulPreviousNotificationValue
      REG=0       REGSYM    ---      ---       pxTCB
      R15         REGSYM    ---      CHAR      xReturn
      R8          REGSYM    ---      BYTE      ucOriginalNotifyState
      REG=1       REGSYM    ---      ---       pxList
      REG=2       REGSYM    ---      ---       pxIndex
      REG=0       REGSYM    ---      ---       xTaskToNotify
      R9          REGSYM    ---      BYTE      uxIndexToNotify
      DR24        REGSYM    ---      DWORD     ulValue
L251 LINKER/LOCATER V4.66.93.0                                                        09/21/2022  15:24:00  PAGE 26


      FFFFFFFDH   STKSYM    ---      INT       eAction
      FFFFFFF9H   STKSYM    ---      ---       pulPreviousNotificationValue
      FFFFFFF5H   STKSYM    ---      ---       pxHigherPriorityTaskWoken
      REG=0       REGSYM    ---      ---       pxTCB
      R7          REGSYM    ---      BYTE      ucOriginalNotifyState
      R8          REGSYM    ---      CHAR      xReturn
      REG=1       REGSYM    ---      ---       pxList
      REG=7       REGSYM    ---      ---       pxIndex
      REG=7       REGSYM    ---      ---       pxIndex
      REG=0       REGSYM    ---      ---       xTaskToNotify
      R10         REGSYM    ---      BYTE      uxIndexToNotify
      REG=7       REGSYM    ---      ---       pxHigherPriorityTaskWoken
      REG=0       REGSYM    ---      ---       pxTCB
      R7          REGSYM    ---      BYTE      ucOriginalNotifyState
      REG=1       REGSYM    ---      ---       pxList
      REG=2       REGSYM    ---      ---       pxIndex
      REG=2       REGSYM    ---      ---       pxIndex
      REG=0       REGSYM    ---      ---       xTask
      R10         REGSYM    ---      BYTE      uxIndexToClear
      REG=0       REGSYM    ---      ---       pxTCB
      R9          REGSYM    ---      CHAR      xReturn
      REG=0       REGSYM    ---      ---       xTask
      R9          REGSYM    ---      BYTE      uxIndexToClear
      DR28        REGSYM    ---      DWORD     ulBitsToClear
      REG=1       REGSYM    ---      ---       pxTCB
      DR4         REGSYM    ---      DWORD     ulReturn
      DR12        REGSYM    ---      DWORD     xTicksToWait
      FFFFFFFCH   STKSYM    ---      CHAR      xCanBlockIndefinitely
      DR12        REGSYM    ---      DWORD     xTimeToWake
      FFFFFFFDH   STKSYM    ---      DWORD     xConstTickCount
      REG=0       REGSYM    ---      ---       pxIndex
      00FF063FH   LINE      ---      ---       #2834
      00FF0651H   LINE      ---      ---       #2836
      00FF0657H   LINE      ---      ---       #2837
      00FF0659H   LINE      ---      ---       #2841
      00FF0659H   LINE      ---      ---       #2844
      00FF0659H   LINE      ---      ---       #2845
      00FF0659H   LINE      ---      ---       #2846
      00FF0659H   LINE      ---      ---       #2853
      00FF066FH   LINE      ---      ---       #2855
      00FF0675H   LINE      ---      ---       #2856
      00FF0675H   LINE      ---      ---       #2860
      00FF0675H   LINE      ---      ---       #2881
      00FF067BH   LINE      ---      ---       #2883
      00FF0681H   LINE      ---      ---       #2884
      00FF0683H   LINE      ---      ---       #2888
      00FF0683H   LINE      ---      ---       #2889
      00FF0683H   LINE      ---      ---       #2891
      00FF0683H   LINE      ---      ---       #2894
      00FF068DH   LINE      ---      ---       #2903
      00FF068DH   LINE      ---      ---       #2905
      00FF0691H   LINE      ---      ---       #2906
      00FF0721H   LINE      ---      ---       #3093
      00FF0721H   LINE      ---      ---       #3094

      ---         MODULE    ---      ---       timers
      000000D0H   SFRSYM    DATA     BYTE      PSW
      0000009DH   SFRSYM    DATA     BYTE      IRCBAND
      00000097H   SFRSYM    DATA     BYTE      AUXR2
      000000EFH   SFRSYM    DATA     BYTE      AUXINTIF
      000000FDH   SFRSYM    DATA     BYTE      S4CON
      000000ACH   SFRSYM    DATA     BYTE      S3CON
      0000009AH   SFRSYM    DATA     BYTE      S2CON
      000000B7H   SFRSYM    DATA     BYTE      IPH
      000000CDH   SFRSYM    DATA     BYTE      SPSTAT
L251 LINKER/LOCATER V4.66.93.0                                                        09/21/2022  15:24:00  PAGE 27


      000000DDH   SFRSYM    DATA     BYTE      T4T3M
      000000C1H   SFRSYM    DATA     BYTE      WDT_CONTR
      000000DFH   SFRSYM    DATA     BYTE      IP3
      000000F4H   SFRSYM    DATA     BYTE      USBCON
      000000B5H   SFRSYM    DATA     BYTE      IP2
      000000FFH   SFRSYM    DATA     BYTE      RSTCFG
      000000C7H   SFRSYM    DATA     BYTE      IAP_CONTR
      000000F9H   SFRSYM    DATA     BYTE      LINICR
      0000008EH   SFRSYM    DATA     BYTE      AUXR
      000000AFH   SFRSYM    DATA     BYTE      IE2
      00000088H   SFRSYM    DATA     BYTE      TCON
      00000089H   SFRSYM    DATA     BYTE      TMOD
      00000098H   SFRSYM    DATA     BYTE      SCON
      000000F1H   SFRSYM    DATA     BYTE      CANICR
      00000087H   SFRSYM    DATA     BYTE      PCON
      000000BCH   SFRSYM    DATA     BYTE      ADC_CONTR
      000000E7H   SFRSYM    DATA     BYTE      CMPCR2
      000000E6H   SFRSYM    DATA     BYTE      CMPCR1
      000000DEH   SFRSYM    DATA     BYTE      ADCCFG
      000000B8H   SFRSYM    DATA     BYTE      IP
      0000008FH   SFRSYM    DATA     BYTE      INTCLKO
      000000EEH   SFRSYM    DATA     BYTE      IP3H
      000000B6H   SFRSYM    DATA     BYTE      IP2H
      000000A8H   SFRSYM    DATA     BYTE      IE
      000000BBH   SFRSYM    DATA     BYTE      P_SW3
      000000BAH   SFRSYM    DATA     BYTE      P_SW2
      000000A2H   SFRSYM    DATA     BYTE      P_SW1
      000000CEH   SFRSYM    DATA     BYTE      SPCTL
      000000F8H   SFRSYM    DATA     BYTE      P7
      000000E8H   SFRSYM    DATA     BYTE      P6
      000000C8H   SFRSYM    DATA     BYTE      P5
      000000C0H   SFRSYM    DATA     BYTE      P4
      000000B0H   SFRSYM    DATA     BYTE      P3
      000000A0H   SFRSYM    DATA     BYTE      P2
      00000090H   SFRSYM    DATA     BYTE      P1
      00000080H   SFRSYM    DATA     BYTE      P0

      ---         MODULE    ---      ---       port
      00FF030EH   PUBLIC    CODE     NEAR LAB  vTimer0ISR?_
      000000D0H.6 SFRSYM    DATA     BIT       ?AC
      000000E0H   SFRSYM    DATA     BYTE      ?ACC
      000000F0H   SFRSYM    DATA     BYTE      ?B
      00000083H   SFRSYM    DATA     BYTE      ?DPH
      00000082H   SFRSYM    DATA     BYTE      ?DPL
      000000A8H.7 SFRSYM    DATA     BIT       ?EA
      000000D0H.5 SFRSYM    DATA     BIT       ?F0
      000000D0H.2 SFRSYM    DATA     BIT       ?OV
      000000D0H.0 SFRSYM    DATA     BIT       ?P
      000000D0H   SFRSYM    DATA     BYTE      ?PSW
      000000D1H   SFRSYM    DATA     BYTE      ?PSW1
      000000D0H.3 SFRSYM    DATA     BIT       ?RS0
      000000D0H.4 SFRSYM    DATA     BIT       ?RS1
      00000081H   SFRSYM    DATA     BYTE      ?SP
      000000D0H.6 SFRSYM    DATA     BIT       AC
      000000E0H   SFRSYM    DATA     BYTE      ACC
      000000DEH   SFRSYM    DATA     BYTE      ADCCFG
      000000BCH   SFRSYM    DATA     BYTE      ADC_CONTR
      000000BCH.4 SFRSYM    DATA     BIT       ADC_EPWMT
      000000BCH.5 SFRSYM    DATA     BIT       ADC_FLAG
      000000BCH.7 SFRSYM    DATA     BIT       ADC_POWER
      000000BDH   SFRSYM    DATA     BYTE      ADC_RES
      000000BEH   SFRSYM    DATA     BYTE      ADC_RESL
      000000BCH.6 SFRSYM    DATA     BIT       ADC_START
      000000EFH   SFRSYM    DATA     BYTE      AUXINTIF
      0000008EH   SFRSYM    DATA     BYTE      AUXR
L251 LINKER/LOCATER V4.66.93.0                                                        09/21/2022  15:24:00  PAGE 28


      00000097H   SFRSYM    DATA     BYTE      AUXR2
      000000F0H   SFRSYM    DATA     BYTE      B
      000000A5H   SFRSYM    DATA     BYTE      BGTRIM
      000000A1H   SFRSYM    DATA     BYTE      BUS_SPEED
      00000097H.2 SFRSYM    DATA     BIT       CAN2EN
      000000F1H.5 SFRSYM    DATA     BIT       CAN2IE
      000000F1H.6 SFRSYM    DATA     BIT       CAN2IF
      000000BBH.0 SFRSYM    DATA     BIT       CAN2_S0
      000000BBH.1 SFRSYM    DATA     BIT       CAN2_S1
      00000097H.1 SFRSYM    DATA     BIT       CANEN
      000000F1H   SFRSYM    DATA     BYTE      CANICR
      000000F1H.1 SFRSYM    DATA     BIT       CANIE
      000000F1H.2 SFRSYM    DATA     BIT       CANIF
      00000097H.3 SFRSYM    DATA     BIT       CANSEL
      000000A2H.4 SFRSYM    DATA     BIT       CAN_S0
      000000A2H.5 SFRSYM    DATA     BIT       CAN_S1
      000000EAH   SFRSYM    DATA     BYTE      CKCON
      000000C1H.4 SFRSYM    DATA     BIT       CLR_WDT
      000000C7H.4 SFRSYM    DATA     BIT       CMD_FAIL
      000000E6H   SFRSYM    DATA     BYTE      CMPCR1
      000000E7H   SFRSYM    DATA     BYTE      CMPCR2
      000000E6H.7 SFRSYM    DATA     BIT       CMPEN
      000000E6H.6 SFRSYM    DATA     BIT       CMPIF
      000000E6H.1 SFRSYM    DATA     BIT       CMPOE
      000000BAH.3 SFRSYM    DATA     BIT       CMPO_S
      000000E6H.0 SFRSYM    DATA     BIT       CMPRES
      000000CEH.2 SFRSYM    DATA     BIT       CPHA
      000000CEH.3 SFRSYM    DATA     BIT       CPOL
      000000D0H.7 SFRSYM    DATA     BIT       CY
      000000F4H.2 SFRSYM    DATA     BIT       DFREC
      000000E7H.6 SFRSYM    DATA     BIT       DISFLT
      000000F4H.0 SFRSYM    DATA     BIT       DM
      000000EDH   SFRSYM    DATA     BYTE      DMAIR
      000000CEH.5 SFRSYM    DATA     BIT       DORD
      000000F4H.1 SFRSYM    DATA     BIT       DP
      00000083H   SFRSYM    DATA     BYTE      DPH
      000000E5H   SFRSYM    DATA     BYTE      DPH1
      00000082H   SFRSYM    DATA     BYTE      DPL
      000000E4H   SFRSYM    DATA     BYTE      DPL1
      000000E3H   SFRSYM    DATA     BYTE      DPS
      00000084H   SFRSYM    DATA     BYTE      DPXL
      000000A8H.7 SFRSYM    DATA     BIT       EA
      000000A8H.5 SFRSYM    DATA     BIT       EADC
      000000BAH.7 SFRSYM    DATA     BIT       EAXFR
      000000A8H.6 SFRSYM    DATA     BIT       ELVD
      000000FFH.6 SFRSYM    DATA     BIT       ENLVR
      000000F4H.7 SFRSYM    DATA     BIT       ENUSB
      000000C1H.5 SFRSYM    DATA     BIT       EN_WDT
      000000A8H.4 SFRSYM    DATA     BIT       ES
      000000AFH.0 SFRSYM    DATA     BIT       ES2
      000000AFH.3 SFRSYM    DATA     BIT       ES3
      000000AFH.4 SFRSYM    DATA     BIT       ES4
      000000AFH.1 SFRSYM    DATA     BIT       ESPI
      000000A8H.1 SFRSYM    DATA     BIT       ET0
      000000A8H.3 SFRSYM    DATA     BIT       ET1
      000000AFH.2 SFRSYM    DATA     BIT       ET2
      000000AFH.5 SFRSYM    DATA     BIT       ET3
      000000AFH.6 SFRSYM    DATA     BIT       ET4
      000000AFH.7 SFRSYM    DATA     BIT       EUSB
      000000A8H.0 SFRSYM    DATA     BIT       EX0
      000000A8H.2 SFRSYM    DATA     BIT       EX1
      0000008FH.4 SFRSYM    DATA     BIT       EX2
      0000008FH.5 SFRSYM    DATA     BIT       EX3
      0000008FH.6 SFRSYM    DATA     BIT       EX4
      0000008EH.1 SFRSYM    DATA     BIT       EXTRAM
L251 LINKER/LOCATER V4.66.93.0                                                        09/21/2022  15:24:00  PAGE 29


      000000D0H.5 SFRSYM    DATA     BIT       F0
      00000087H.2 SFRSYM    DATA     BIT       GF0
      00000087H.3 SFRSYM    DATA     BIT       GF1
      0000009DH.0 SFRSYM    DATA     BIT       HIRCSEL0
      0000009DH.1 SFRSYM    DATA     BIT       HIRCSEL1
      000000BAH.4 SFRSYM    DATA     BIT       I2C_S0
      000000BAH.5 SFRSYM    DATA     BIT       I2C_S1
      000000BBH.6 SFRSYM    DATA     BIT       I2S_S0
      000000BBH.7 SFRSYM    DATA     BIT       I2S_S1
      000000C7H.7 SFRSYM    DATA     BIT       IAPEN
      000000F6H   SFRSYM    DATA     BYTE      IAP_ADDRE
      000000C3H   SFRSYM    DATA     BYTE      IAP_ADDRH
      000000C4H   SFRSYM    DATA     BYTE      IAP_ADDRL
      000000C5H   SFRSYM    DATA     BYTE      IAP_CMD
      000000C7H   SFRSYM    DATA     BYTE      IAP_CONTR
      000000C2H   SFRSYM    DATA     BYTE      IAP_DATA
      000000F5H   SFRSYM    DATA     BYTE      IAP_TPS
      000000C6H   SFRSYM    DATA     BYTE      IAP_TRIG
      000000F7H   SFRSYM    DATA     BYTE      ICHECR
      00000087H.0 SFRSYM    DATA     BIT       IDL
      000000C1H.3 SFRSYM    DATA     BIT       IDL_WDT
      000000A8H   SFRSYM    DATA     BYTE      IE
      00000088H.1 SFRSYM    DATA     BIT       IE0
      00000088H.3 SFRSYM    DATA     BIT       IE1
      000000AFH   SFRSYM    DATA     BYTE      IE2
      000000EFH.4 SFRSYM    DATA     BIT       INT2IF
      000000EFH.5 SFRSYM    DATA     BIT       INT3IF
      000000EFH.6 SFRSYM    DATA     BIT       INT4IF
      0000008FH   SFRSYM    DATA     BYTE      INTCLKO
      000000E7H.7 SFRSYM    DATA     BIT       INVCMPO
      000000B8H   SFRSYM    DATA     BYTE      IP
      000000B5H   SFRSYM    DATA     BYTE      IP2
      000000B6H   SFRSYM    DATA     BYTE      IP2H
      000000DFH   SFRSYM    DATA     BYTE      IP3
      000000EEH   SFRSYM    DATA     BYTE      IP3H
      000000B7H   SFRSYM    DATA     BYTE      IPH
      0000009DH   SFRSYM    DATA     BYTE      IRCBAND
      0000009FH   SFRSYM    DATA     BYTE      IRTRIM
      00000088H.0 SFRSYM    DATA     BIT       IT0
      00000088H.2 SFRSYM    DATA     BIT       IT1
      000000FAH   SFRSYM    DATA     BYTE      LINAR
      000000FBH   SFRSYM    DATA     BYTE      LINDR
      00000097H.0 SFRSYM    DATA     BIT       LINEN
      000000F9H   SFRSYM    DATA     BYTE      LINICR
      000000F9H.1 SFRSYM    DATA     BIT       LINIE
      000000F9H.2 SFRSYM    DATA     BIT       LINIF
      000000A2H.0 SFRSYM    DATA     BIT       LIN_S0
      000000A2H.1 SFRSYM    DATA     BIT       LIN_S1
      0000009EH   SFRSYM    DATA     BYTE      LIRTRIM
      00000087H.5 SFRSYM    DATA     BIT       LVDF
      000000CEH.4 SFRSYM    DATA     BIT       MSTR
      000000EBH   SFRSYM    DATA     BYTE      MXAX
      000000E6H.4 SFRSYM    DATA     BIT       NIE
      000000D0H.2 SFRSYM    DATA     BIT       OV
      000000D0H.0 SFRSYM    DATA     BIT       P
      00000080H   SFRSYM    DATA     BYTE      P0
      00000080H.0 SFRSYM    DATA     BIT       P00
      00000080H.1 SFRSYM    DATA     BIT       P01
      00000080H.2 SFRSYM    DATA     BIT       P02
      00000080H.3 SFRSYM    DATA     BIT       P03
      00000080H.4 SFRSYM    DATA     BIT       P04
      00000080H.5 SFRSYM    DATA     BIT       P05
      00000080H.6 SFRSYM    DATA     BIT       P06
      00000080H.7 SFRSYM    DATA     BIT       P07
      00000094H   SFRSYM    DATA     BYTE      P0M0
L251 LINKER/LOCATER V4.66.93.0                                                        09/21/2022  15:24:00  PAGE 30


      00000093H   SFRSYM    DATA     BYTE      P0M1
      00000090H   SFRSYM    DATA     BYTE      P1
      00000090H.0 SFRSYM    DATA     BIT       P10
      00000090H.1 SFRSYM    DATA     BIT       P11
      00000090H.2 SFRSYM    DATA     BIT       P12
      00000090H.3 SFRSYM    DATA     BIT       P13
      00000090H.4 SFRSYM    DATA     BIT       P14
      00000090H.5 SFRSYM    DATA     BIT       P15
      00000090H.6 SFRSYM    DATA     BIT       P16
      00000090H.7 SFRSYM    DATA     BIT       P17
      00000092H   SFRSYM    DATA     BYTE      P1M0
      00000091H   SFRSYM    DATA     BYTE      P1M1
      000000A0H   SFRSYM    DATA     BYTE      P2
      000000A0H.0 SFRSYM    DATA     BIT       P20
      000000A0H.1 SFRSYM    DATA     BIT       P21
      000000A0H.2 SFRSYM    DATA     BIT       P22
      000000A0H.3 SFRSYM    DATA     BIT       P23
      000000A0H.4 SFRSYM    DATA     BIT       P24
      000000A0H.5 SFRSYM    DATA     BIT       P25
      000000A0H.6 SFRSYM    DATA     BIT       P26
      000000A0H.7 SFRSYM    DATA     BIT       P27
      00000096H   SFRSYM    DATA     BYTE      P2M0
      00000095H   SFRSYM    DATA     BYTE      P2M1
      000000B0H   SFRSYM    DATA     BYTE      P3
      000000B0H.0 SFRSYM    DATA     BIT       P30
      000000B0H.1 SFRSYM    DATA     BIT       P31
      000000B0H.2 SFRSYM    DATA     BIT       P32
      000000B0H.3 SFRSYM    DATA     BIT       P33
      000000B0H.4 SFRSYM    DATA     BIT       P34
      000000B0H.5 SFRSYM    DATA     BIT       P35
      000000B0H.6 SFRSYM    DATA     BIT       P36
      000000B0H.7 SFRSYM    DATA     BIT       P37
      000000B2H   SFRSYM    DATA     BYTE      P3M0
      000000B1H   SFRSYM    DATA     BYTE      P3M1
      000000C0H   SFRSYM    DATA     BYTE      P4
      000000C0H.0 SFRSYM    DATA     BIT       P40
      000000C0H.1 SFRSYM    DATA     BIT       P41
      000000C0H.2 SFRSYM    DATA     BIT       P42
      000000C0H.3 SFRSYM    DATA     BIT       P43
      000000C0H.4 SFRSYM    DATA     BIT       P44
      000000C0H.5 SFRSYM    DATA     BIT       P45
      000000C0H.6 SFRSYM    DATA     BIT       P46
      000000C0H.7 SFRSYM    DATA     BIT       P47
      000000B4H   SFRSYM    DATA     BYTE      P4M0
      000000B3H   SFRSYM    DATA     BYTE      P4M1
      000000C8H   SFRSYM    DATA     BYTE      P5
      000000C8H.0 SFRSYM    DATA     BIT       P50
      000000C8H.1 SFRSYM    DATA     BIT       P51
      000000C8H.2 SFRSYM    DATA     BIT       P52
      000000C8H.3 SFRSYM    DATA     BIT       P53
      000000C8H.4 SFRSYM    DATA     BIT       P54
      000000FFH.4 SFRSYM    DATA     BIT       P54RST
      000000C8H.5 SFRSYM    DATA     BIT       P55
      000000C8H.6 SFRSYM    DATA     BIT       P56
      000000C8H.7 SFRSYM    DATA     BIT       P57
      000000CAH   SFRSYM    DATA     BYTE      P5M0
      000000C9H   SFRSYM    DATA     BYTE      P5M1
      000000E8H   SFRSYM    DATA     BYTE      P6
      000000E8H.0 SFRSYM    DATA     BIT       P60
      000000E8H.1 SFRSYM    DATA     BIT       P61
      000000E8H.2 SFRSYM    DATA     BIT       P62
      000000E8H.3 SFRSYM    DATA     BIT       P63
      000000E8H.4 SFRSYM    DATA     BIT       P64
      000000E8H.5 SFRSYM    DATA     BIT       P65
      000000E8H.6 SFRSYM    DATA     BIT       P66
L251 LINKER/LOCATER V4.66.93.0                                                        09/21/2022  15:24:00  PAGE 31


      000000E8H.7 SFRSYM    DATA     BIT       P67
      000000CCH   SFRSYM    DATA     BYTE      P6M0
      000000CBH   SFRSYM    DATA     BYTE      P6M1
      000000F8H   SFRSYM    DATA     BYTE      P7
      000000F8H.0 SFRSYM    DATA     BIT       P70
      000000F8H.1 SFRSYM    DATA     BIT       P71
      000000F8H.2 SFRSYM    DATA     BIT       P72
      000000F8H.3 SFRSYM    DATA     BIT       P73
      000000F8H.4 SFRSYM    DATA     BIT       P74
      000000F8H.5 SFRSYM    DATA     BIT       P75
      000000F8H.6 SFRSYM    DATA     BIT       P76
      000000F8H.7 SFRSYM    DATA     BIT       P77
      000000E2H   SFRSYM    DATA     BYTE      P7M0
      000000E1H   SFRSYM    DATA     BYTE      P7M1
      000000B8H.5 SFRSYM    DATA     BIT       PADC
      000000B7H.5 SFRSYM    DATA     BIT       PADCH
      000000F1H.7 SFRSYM    DATA     BIT       PCAN2H
      000000F1H.4 SFRSYM    DATA     BIT       PCAN2L
      000000F1H.3 SFRSYM    DATA     BIT       PCANH
      000000F1H.0 SFRSYM    DATA     BIT       PCANL
      000000B5H.5 SFRSYM    DATA     BIT       PCMP
      000000B6H.5 SFRSYM    DATA     BIT       PCMPH
      00000087H   SFRSYM    DATA     BYTE      PCON
      00000087H.1 SFRSYM    DATA     BIT       PD
      000000F4H.3 SFRSYM    DATA     BIT       PDEN
      000000B5H.6 SFRSYM    DATA     BIT       PI2C
      000000B6H.6 SFRSYM    DATA     BIT       PI2CH
      000000DFH.3 SFRSYM    DATA     BIT       PI2S
      000000EEH.3 SFRSYM    DATA     BIT       PI2SH
      000000E6H.5 SFRSYM    DATA     BIT       PIE
      000000F9H.3 SFRSYM    DATA     BIT       PLINH
      000000F9H.0 SFRSYM    DATA     BIT       PLINL
      000000B8H.6 SFRSYM    DATA     BIT       PLVD
      000000B7H.6 SFRSYM    DATA     BIT       PLVDH
      00000087H.4 SFRSYM    DATA     BIT       POF
      000000B5H.2 SFRSYM    DATA     BIT       PPWMA
      000000B6H.2 SFRSYM    DATA     BIT       PPWMAH
      000000B5H.3 SFRSYM    DATA     BIT       PPWMB
      000000B6H.3 SFRSYM    DATA     BIT       PPWMBH
      000000DFH.2 SFRSYM    DATA     BIT       PRTC
      000000EEH.2 SFRSYM    DATA     BIT       PRTCH
      000000B8H.4 SFRSYM    DATA     BIT       PS
      000000B5H.0 SFRSYM    DATA     BIT       PS2
      000000B6H.0 SFRSYM    DATA     BIT       PS2H
      000000F4H.5 SFRSYM    DATA     BIT       PS2M
      000000DFH.0 SFRSYM    DATA     BIT       PS3
      000000EEH.0 SFRSYM    DATA     BIT       PS3H
      000000DFH.1 SFRSYM    DATA     BIT       PS4
      000000EEH.1 SFRSYM    DATA     BIT       PS4H
      000000B7H.4 SFRSYM    DATA     BIT       PSH
      000000B5H.1 SFRSYM    DATA     BIT       PSPI
      000000B6H.1 SFRSYM    DATA     BIT       PSPIH
      000000D0H   SFRSYM    DATA     BYTE      PSW
      000000D1H   SFRSYM    DATA     BYTE      PSW1
      000000B8H.1 SFRSYM    DATA     BIT       PT0
      000000B7H.1 SFRSYM    DATA     BIT       PT0H
      000000B8H.3 SFRSYM    DATA     BIT       PT1
      000000B7H.3 SFRSYM    DATA     BIT       PT1H
      000000F4H.4 SFRSYM    DATA     BIT       PUEN
      000000B5H.7 SFRSYM    DATA     BIT       PUSB
      000000B6H.7 SFRSYM    DATA     BIT       PUSBH
      000000B8H.0 SFRSYM    DATA     BIT       PX0
      000000B7H.0 SFRSYM    DATA     BIT       PX0H
      000000B8H.2 SFRSYM    DATA     BIT       PX1
      000000B7H.2 SFRSYM    DATA     BIT       PX1H
L251 LINKER/LOCATER V4.66.93.0                                                        09/21/2022  15:24:00  PAGE 32


      000000B5H.4 SFRSYM    DATA     BIT       PX4
      000000B6H.4 SFRSYM    DATA     BIT       PX4H
      000000A2H   SFRSYM    DATA     BYTE      P_SW1
      000000BAH   SFRSYM    DATA     BYTE      P_SW2
      000000BBH   SFRSYM    DATA     BYTE      P_SW3
      00000098H.2 SFRSYM    DATA     BIT       RB8
      00000098H.4 SFRSYM    DATA     BIT       REN
      000000DEH.5 SFRSYM    DATA     BIT       RESFMT
      00000098H.0 SFRSYM    DATA     BIT       RI
      000000D0H.3 SFRSYM    DATA     BIT       RS0
      000000D0H.4 SFRSYM    DATA     BIT       RS1
      000000FFH   SFRSYM    DATA     BYTE      RSTCFG
      0000008EH.0 SFRSYM    DATA     BIT       S1BRT
      0000008EH.5 SFRSYM    DATA     BIT       S1M0x6
      000000BBH.2 SFRSYM    DATA     BIT       S1SPI_S0
      000000BBH.3 SFRSYM    DATA     BIT       S1SPI_S1
      000000A2H.6 SFRSYM    DATA     BIT       S1_S0
      000000A2H.7 SFRSYM    DATA     BIT       S1_S1
      0000009BH   SFRSYM    DATA     BYTE      S2BUF
      0000009AH   SFRSYM    DATA     BYTE      S2CON
      0000009AH.2 SFRSYM    DATA     BIT       S2RB8
      0000009AH.4 SFRSYM    DATA     BIT       S2REN
      0000009AH.0 SFRSYM    DATA     BIT       S2RI
      0000009AH.7 SFRSYM    DATA     BIT       S2SM0
      0000009AH.6 SFRSYM    DATA     BIT       S2SM1
      0000009AH.5 SFRSYM    DATA     BIT       S2SM2
      000000BBH.4 SFRSYM    DATA     BIT       S2SPI_S0
      000000BBH.5 SFRSYM    DATA     BIT       S2SPI_S1
      0000009AH.3 SFRSYM    DATA     BIT       S2TB8
      0000009AH.1 SFRSYM    DATA     BIT       S2TI
      000000BAH.0 SFRSYM    DATA     BIT       S2_S
      000000ADH   SFRSYM    DATA     BYTE      S3BUF
      000000ACH   SFRSYM    DATA     BYTE      S3CON
      000000ACH.2 SFRSYM    DATA     BIT       S3RB8
      000000ACH.4 SFRSYM    DATA     BIT       S3REN
      000000ACH.0 SFRSYM    DATA     BIT       S3RI
      000000ACH.7 SFRSYM    DATA     BIT       S3SM0
      000000ACH.5 SFRSYM    DATA     BIT       S3SM2
      000000ACH.6 SFRSYM    DATA     BIT       S3ST3
      000000ACH.3 SFRSYM    DATA     BIT       S3TB8
      000000ACH.1 SFRSYM    DATA     BIT       S3TI
      000000BAH.1 SFRSYM    DATA     BIT       S3_S
      000000FEH   SFRSYM    DATA     BYTE      S4BUF
      000000FDH   SFRSYM    DATA     BYTE      S4CON
      000000FDH.2 SFRSYM    DATA     BIT       S4RB8
      000000FDH.4 SFRSYM    DATA     BIT       S4REN
      000000FDH.0 SFRSYM    DATA     BIT       S4RI
      000000FDH.7 SFRSYM    DATA     BIT       S4SM0
      000000FDH.5 SFRSYM    DATA     BIT       S4SM2
      000000FDH.6 SFRSYM    DATA     BIT       S4ST4
      000000FDH.3 SFRSYM    DATA     BIT       S4TB8
      000000FDH.1 SFRSYM    DATA     BIT       S4TI
      000000BAH.2 SFRSYM    DATA     BIT       S4_S
      000000A9H   SFRSYM    DATA     BYTE      SADDR
      000000B9H   SFRSYM    DATA     BYTE      SADEN
      00000099H   SFRSYM    DATA     BYTE      SBUF
      00000098H   SFRSYM    DATA     BYTE      SCON
      00000098H.7 SFRSYM    DATA     BIT       SM0
      00000098H.6 SFRSYM    DATA     BIT       SM1
      00000098H.5 SFRSYM    DATA     BIT       SM2
      00000087H.7 SFRSYM    DATA     BIT       SMOD
      00000087H.6 SFRSYM    DATA     BIT       SMOD0
      00000081H   SFRSYM    DATA     BYTE      SP
      000000CEH   SFRSYM    DATA     BYTE      SPCTL
      000000CFH   SFRSYM    DATA     BYTE      SPDAT
L251 LINKER/LOCATER V4.66.93.0                                                        09/21/2022  15:24:00  PAGE 33


      000000CEH.6 SFRSYM    DATA     BIT       SPEN
      00000085H   SFRSYM    DATA     BYTE      SPH
      000000CDH.7 SFRSYM    DATA     BIT       SPIF
      000000A2H.2 SFRSYM    DATA     BIT       SPI_S0
      000000A2H.3 SFRSYM    DATA     BIT       SPI_S1
      000000CEH.0 SFRSYM    DATA     BIT       SPR0
      000000CEH.1 SFRSYM    DATA     BIT       SPR1
      000000CDH   SFRSYM    DATA     BYTE      SPSTAT
      000000CEH.7 SFRSYM    DATA     BIT       SSIG
      000000C7H.6 SFRSYM    DATA     BIT       SWBS
      000000C7H.5 SFRSYM    DATA     BIT       SWRST
      0000008FH.0 SFRSYM    DATA     BIT       T0CLKO
      00000089H.2 SFRSYM    DATA     BIT       T0_CT
      00000089H.3 SFRSYM    DATA     BIT       T0_GATE
      00000089H.0 SFRSYM    DATA     BIT       T0_M0
      00000089H.1 SFRSYM    DATA     BIT       T0_M1
      0000008EH.7 SFRSYM    DATA     BIT       T0x12
      0000008FH.1 SFRSYM    DATA     BIT       T1CLKO
      00000089H.6 SFRSYM    DATA     BIT       T1_CT
      00000089H.7 SFRSYM    DATA     BIT       T1_GATE
      00000089H.4 SFRSYM    DATA     BIT       T1_M0
      00000089H.5 SFRSYM    DATA     BIT       T1_M1
      0000008EH.6 SFRSYM    DATA     BIT       T1x12
      0000008FH.2 SFRSYM    DATA     BIT       T2CLKO
      000000D6H   SFRSYM    DATA     BYTE      T2H
      000000EFH.0 SFRSYM    DATA     BIT       T2IF
      000000D7H   SFRSYM    DATA     BYTE      T2L
      0000008EH.4 SFRSYM    DATA     BIT       T2R
      0000008EH.3 SFRSYM    DATA     BIT       T2_CT
      0000008EH.2 SFRSYM    DATA     BIT       T2x12
      000000DDH.0 SFRSYM    DATA     BIT       T3CLKO
      000000D4H   SFRSYM    DATA     BYTE      T3H
      000000EFH.1 SFRSYM    DATA     BIT       T3IF
      000000D5H   SFRSYM    DATA     BYTE      T3L
      000000DDH.3 SFRSYM    DATA     BIT       T3R
      000000DDH.2 SFRSYM    DATA     BIT       T3_CT
      000000DDH.1 SFRSYM    DATA     BIT       T3x12
      000000DDH.4 SFRSYM    DATA     BIT       T4CLKO
      000000D2H   SFRSYM    DATA     BYTE      T4H
      000000EFH.2 SFRSYM    DATA     BIT       T4IF
      000000D3H   SFRSYM    DATA     BYTE      T4L
      000000DDH.7 SFRSYM    DATA     BIT       T4R
      000000DDH   SFRSYM    DATA     BYTE      T4T3M
      000000DDH.6 SFRSYM    DATA     BIT       T4_CT
      000000DDH.5 SFRSYM    DATA     BIT       T4x12
      000000AEH   SFRSYM    DATA     BYTE      TA
      00000098H.3 SFRSYM    DATA     BIT       TB8
      00000088H   SFRSYM    DATA     BYTE      TCON
      00000088H.5 SFRSYM    DATA     BIT       TF0
      00000088H.7 SFRSYM    DATA     BIT       TF1
      0000008CH   SFRSYM    DATA     BYTE      TH0
      0000008DH   SFRSYM    DATA     BYTE      TH1
      00000098H.1 SFRSYM    DATA     BIT       TI
      0000008AH   SFRSYM    DATA     BYTE      TL0
      0000008BH   SFRSYM    DATA     BYTE      TL1
      00000089H   SFRSYM    DATA     BYTE      TMOD
      00000088H.4 SFRSYM    DATA     BIT       TR0
      00000088H.6 SFRSYM    DATA     BIT       TR1
      000000FCH   SFRSYM    DATA     BYTE      USBADR
      0000009DH.7 SFRSYM    DATA     BIT       USBCKS
      0000009DH.6 SFRSYM    DATA     BIT       USBCKS2
      000000DCH   SFRSYM    DATA     BYTE      USBCLK
      000000F4H   SFRSYM    DATA     BYTE      USBCON
      000000ECH   SFRSYM    DATA     BYTE      USBDAT
      000000F4H.6 SFRSYM    DATA     BIT       USBRST
L251 LINKER/LOCATER V4.66.93.0                                                        09/21/2022  15:24:00  PAGE 34


      000000A3H   SFRSYM    DATA     BYTE      V33TRIM
      000000A6H   SFRSYM    DATA     BYTE      VRTRIM
      000000CDH.6 SFRSYM    DATA     BIT       WCOL
      000000C1H   SFRSYM    DATA     BYTE      WDT_CONTR
      000000C1H.7 SFRSYM    DATA     BIT       WDT_FLAG
      000000ABH   SFRSYM    DATA     BYTE      WKTCH
      000000AAH   SFRSYM    DATA     BYTE      WKTCL
      000000E9H   SFRSYM    DATA     BYTE      WTST
      000000D1H.1 SFRSYM    DATA     BIT       Z
      00FF0350H   SYMBOL    CODE     ---       ?C0011
      00000008H   SYMBOL    DATA     BYTE      xPCB
      00000009H   SYMBOL    DATA     BYTE      xPCH
      0000000AH   SYMBOL    DATA     BYTE      xPCL

      00FF030EH   BLOCK     CODE     NEAR LAB  LVL=0
      00FF030EH   LINE      CODE     ---       #772
      00FF0310H   LINE      CODE     ---       #773
      00FF0312H   LINE      CODE     ---       #774
      00FF0314H   LINE      CODE     ---       #775
      00FF0316H   LINE      CODE     ---       #776
      00FF0318H   LINE      CODE     ---       #777
      00FF031AH   LINE      CODE     ---       #778
      00FF031CH   LINE      CODE     ---       #779
      00FF031EH   LINE      CODE     ---       #781
      00FF0320H   LINE      CODE     ---       #782
      00FF0322H   LINE      CODE     ---       #783
      00FF0324H   LINE      CODE     ---       #784
      00FF0326H   LINE      CODE     ---       #785
      00FF0328H   LINE      CODE     ---       #786
      00FF032AH   LINE      CODE     ---       #787
      00FF032CH   LINE      CODE     ---       #788
      00FF032EH   LINE      CODE     ---       #789
      00FF0330H   LINE      CODE     ---       #790
      00FF0332H   LINE      CODE     ---       #796
      00FF0335H   LINE      CODE     ---       #797
      00FF0337H   LINE      CODE     ---       #803
      00FF0339H   LINE      CODE     ---       #804
      00FF033DH   LINE      CODE     ---       #805
      00FF0341H   LINE      CODE     ---       #806
      00FF0344H   LINE      CODE     ---       #807
      00FF0348H   LINE      CODE     ---       #808
      00FF034CH   LINE      CODE     ---       #809
      00FF034EH   LINE      CODE     ---       #810
      00FF0350H   LINE      CODE     ---       #825
      00FF0352H   LINE      CODE     ---       #826
      00FF0354H   LINE      CODE     ---       #827
      00FF0356H   LINE      CODE     ---       #828
      00FF0358H   LINE      CODE     ---       #829
      00FF035AH   LINE      CODE     ---       #830
      00FF035CH   LINE      CODE     ---       #831
      00FF035EH   LINE      CODE     ---       #832
      00FF0360H   LINE      CODE     ---       #833
      00FF0362H   LINE      CODE     ---       #834
      00FF0364H   LINE      CODE     ---       #836
      00FF0366H   LINE      CODE     ---       #837
      00FF0368H   LINE      CODE     ---       #838
      00FF036BH   LINE      CODE     ---       #839
      00FF036EH   LINE      CODE     ---       #840
      00FF0371H   LINE      CODE     ---       #841
      00FF0372H   LINE      CODE     ---       #843
      00FF0374H   LINE      CODE     ---       #844
      00FF0377H   LINE      CODE     ---       #847
      ---         BLOCKEND  ---      ---       LVL=0

      00FF000BH   BLOCK     CODE     NEAR LAB  LVL=0
L251 LINKER/LOCATER V4.66.93.0                                                        09/21/2022  15:24:00  PAGE 35


      00FF000BH   LINE      CODE     ---       #890
      ---         BLOCKEND  ---      ---       LVL=0

      ---         MODULE    ---      ---       heap_1
      000000D0H   SFRSYM    DATA     BYTE      PSW
      0000009DH   SFRSYM    DATA     BYTE      IRCBAND
      00000097H   SFRSYM    DATA     BYTE      AUXR2
      000000EFH   SFRSYM    DATA     BYTE      AUXINTIF
      000000FDH   SFRSYM    DATA     BYTE      S4CON
      000000ACH   SFRSYM    DATA     BYTE      S3CON
      0000009AH   SFRSYM    DATA     BYTE      S2CON
      000000B7H   SFRSYM    DATA     BYTE      IPH
      000000CDH   SFRSYM    DATA     BYTE      SPSTAT
      000000DDH   SFRSYM    DATA     BYTE      T4T3M
      000000C1H   SFRSYM    DATA     BYTE      WDT_CONTR
      000000DFH   SFRSYM    DATA     BYTE      IP3
      000000F4H   SFRSYM    DATA     BYTE      USBCON
      000000B5H   SFRSYM    DATA     BYTE      IP2
      000000FFH   SFRSYM    DATA     BYTE      RSTCFG
      000000C7H   SFRSYM    DATA     BYTE      IAP_CONTR
      000000F9H   SFRSYM    DATA     BYTE      LINICR
      0000008EH   SFRSYM    DATA     BYTE      AUXR
      000000AFH   SFRSYM    DATA     BYTE      IE2
      00000088H   SFRSYM    DATA     BYTE      TCON
      00000089H   SFRSYM    DATA     BYTE      TMOD
      00000098H   SFRSYM    DATA     BYTE      SCON
      000000F1H   SFRSYM    DATA     BYTE      CANICR
      00000087H   SFRSYM    DATA     BYTE      PCON
      000000BCH   SFRSYM    DATA     BYTE      ADC_CONTR
      000000E7H   SFRSYM    DATA     BYTE      CMPCR2
      000000E6H   SFRSYM    DATA     BYTE      CMPCR1
      000000DEH   SFRSYM    DATA     BYTE      ADCCFG
      000000B8H   SFRSYM    DATA     BYTE      IP
      0000008FH   SFRSYM    DATA     BYTE      INTCLKO
      000000EEH   SFRSYM    DATA     BYTE      IP3H
      000000B6H   SFRSYM    DATA     BYTE      IP2H
      000000A8H   SFRSYM    DATA     BYTE      IE
      000000BBH   SFRSYM    DATA     BYTE      P_SW3
      000000BAH   SFRSYM    DATA     BYTE      P_SW2
      000000A2H   SFRSYM    DATA     BYTE      P_SW1
      000000CEH   SFRSYM    DATA     BYTE      SPCTL
      000000F8H   SFRSYM    DATA     BYTE      P7
      000000E8H   SFRSYM    DATA     BYTE      P6
      000000C8H   SFRSYM    DATA     BYTE      P5
      000000C0H   SFRSYM    DATA     BYTE      P4
      000000B0H   SFRSYM    DATA     BYTE      P3
      000000A0H   SFRSYM    DATA     BYTE      P2
      00000090H   SFRSYM    DATA     BYTE      P1
      00000080H   SFRSYM    DATA     BYTE      P0
      0000000BH   SYMBOL    EDATA    WORD      xNextFreeByte
      0000000DH   SYMBOL    EDATA    ---       ucHeap
      WR14        REGSYM    ---      WORD      xWantedSize
      FFFFFFFDH   STKSYM    ---      ---       pvReturn
      0000080DH   SYMBOL    EDATA    ---       pucAlignedHeap

      ---         MODULE    ---      ---       DebugPrintf
      00FF0722H   PUBLIC    CODE     ---       UartPutc?_
      00FF0739H   PUBLIC    CODE     ---       DebugPrintfInit?_
      000000D0H   SFRSYM    DATA     BYTE      PSW
      0000009DH   SFRSYM    DATA     BYTE      IRCBAND
      00000097H   SFRSYM    DATA     BYTE      AUXR2
      000000EFH   SFRSYM    DATA     BYTE      AUXINTIF
      000000FDH   SFRSYM    DATA     BYTE      S4CON
      000000ACH   SFRSYM    DATA     BYTE      S3CON
      0000009AH   SFRSYM    DATA     BYTE      S2CON
L251 LINKER/LOCATER V4.66.93.0                                                        09/21/2022  15:24:00  PAGE 36


      000000B7H   SFRSYM    DATA     BYTE      IPH
      000000CDH   SFRSYM    DATA     BYTE      SPSTAT
      000000DDH   SFRSYM    DATA     BYTE      T4T3M
      000000C1H   SFRSYM    DATA     BYTE      WDT_CONTR
      00000088H.6 SFRSYM    DATA     BIT       TR1
      0000008BH   SFRSYM    DATA     BYTE      TL1
      0000008DH   SFRSYM    DATA     BYTE      TH1
      000000DFH   SFRSYM    DATA     BYTE      IP3
      000000F4H   SFRSYM    DATA     BYTE      USBCON
      000000B5H   SFRSYM    DATA     BYTE      IP2
      000000FFH   SFRSYM    DATA     BYTE      RSTCFG
      000000C7H   SFRSYM    DATA     BYTE      IAP_CONTR
      000000F9H   SFRSYM    DATA     BYTE      LINICR
      0000008EH   SFRSYM    DATA     BYTE      AUXR
      000000AFH   SFRSYM    DATA     BYTE      IE2
      00000088H   SFRSYM    DATA     BYTE      TCON
      00000089H   SFRSYM    DATA     BYTE      TMOD
      00000098H   SFRSYM    DATA     BYTE      SCON
      000000F1H   SFRSYM    DATA     BYTE      CANICR
      00000087H   SFRSYM    DATA     BYTE      PCON
      00000099H   SFRSYM    DATA     BYTE      SBUF
      000000BCH   SFRSYM    DATA     BYTE      ADC_CONTR
      000000E7H   SFRSYM    DATA     BYTE      CMPCR2
      000000E6H   SFRSYM    DATA     BYTE      CMPCR1
      00000098H.1 SFRSYM    DATA     BIT       TI
      000000DEH   SFRSYM    DATA     BYTE      ADCCFG
      000000B8H   SFRSYM    DATA     BYTE      IP
      0000008FH   SFRSYM    DATA     BYTE      INTCLKO
      000000EEH   SFRSYM    DATA     BYTE      IP3H
      000000B6H   SFRSYM    DATA     BYTE      IP2H
      000000A8H   SFRSYM    DATA     BYTE      IE
      000000BBH   SFRSYM    DATA     BYTE      P_SW3
      000000BAH   SFRSYM    DATA     BYTE      P_SW2
      000000A2H   SFRSYM    DATA     BYTE      P_SW1
      000000CEH   SFRSYM    DATA     BYTE      SPCTL
      000000F8H   SFRSYM    DATA     BYTE      P7
      000000E8H   SFRSYM    DATA     BYTE      P6
      000000C8H   SFRSYM    DATA     BYTE      P5
      000000C0H   SFRSYM    DATA     BYTE      P4
      000000B0H   SFRSYM    DATA     BYTE      P3
      000000A0H   SFRSYM    DATA     BYTE      P2
      00000090H   SFRSYM    DATA     BYTE      P1
      00000080H   SFRSYM    DATA     BYTE      P0

      00FF0739H   BLOCK     CODE     ---       LVL=0
      00FF0739H   LINE      ---      ---       #27
      00FF0739H   LINE      ---      ---       #29
      00FF0741H   LINE      ---      ---       #30
      00FF0744H   LINE      ---      ---       #31
      00FF0747H   LINE      ---      ---       #32
      00FF074AH   LINE      ---      ---       #33
      00FF074DH   LINE      ---      ---       #34
      00FF074FH   LINE      ---      ---       #35
      ---         BLOCKEND  ---      ---       LVL=0

      00FF0722H   BLOCK     CODE     ---       LVL=0
      00FF0722H   LINE      ---      ---       #37
      00FF0722H   LINE      ---      ---       #39
      00FF0725H   LINE      ---      ---       #40
      00FF072BH   LINE      ---      ---       #41
      00FF072DH   LINE      ---      ---       #42
      R11         REGSYM    ---      BYTE      dat
      ---         BLOCKEND  ---      ---       LVL=0

      ---         MODULE    ---      ---       putchar
L251 LINKER/LOCATER V4.66.93.0                                                        09/21/2022  15:24:00  PAGE 37


      00FF072EH   PUBLIC    CODE     ---       putchar
      000000D0H   SFRSYM    DATA     BYTE      PSW
      0000009DH   SFRSYM    DATA     BYTE      IRCBAND
      00000097H   SFRSYM    DATA     BYTE      AUXR2
      000000EFH   SFRSYM    DATA     BYTE      AUXINTIF
      000000FDH   SFRSYM    DATA     BYTE      S4CON
      000000ACH   SFRSYM    DATA     BYTE      S3CON
      0000009AH   SFRSYM    DATA     BYTE      S2CON
      000000B7H   SFRSYM    DATA     BYTE      IPH
      000000CDH   SFRSYM    DATA     BYTE      SPSTAT
      000000DDH   SFRSYM    DATA     BYTE      T4T3M
      000000C1H   SFRSYM    DATA     BYTE      WDT_CONTR
      000000DFH   SFRSYM    DATA     BYTE      IP3
      000000F4H   SFRSYM    DATA     BYTE      USBCON
      000000B5H   SFRSYM    DATA     BYTE      IP2
      000000FFH   SFRSYM    DATA     BYTE      RSTCFG
      000000C7H   SFRSYM    DATA     BYTE      IAP_CONTR
      000000F9H   SFRSYM    DATA     BYTE      LINICR
      0000008EH   SFRSYM    DATA     BYTE      AUXR
      000000AFH   SFRSYM    DATA     BYTE      IE2
      00000088H   SFRSYM    DATA     BYTE      TCON
      00000089H   SFRSYM    DATA     BYTE      TMOD
      00000098H   SFRSYM    DATA     BYTE      SCON
      000000F1H   SFRSYM    DATA     BYTE      CANICR
      00000087H   SFRSYM    DATA     BYTE      PCON
      000000BCH   SFRSYM    DATA     BYTE      ADC_CONTR
      000000E7H   SFRSYM    DATA     BYTE      CMPCR2
      000000E6H   SFRSYM    DATA     BYTE      CMPCR1
      000000DEH   SFRSYM    DATA     BYTE      ADCCFG
      000000B8H   SFRSYM    DATA     BYTE      IP
      0000008FH   SFRSYM    DATA     BYTE      INTCLKO
      000000EEH   SFRSYM    DATA     BYTE      IP3H
      000000B6H   SFRSYM    DATA     BYTE      IP2H
      000000A8H   SFRSYM    DATA     BYTE      IE
      000000BBH   SFRSYM    DATA     BYTE      P_SW3
      000000BAH   SFRSYM    DATA     BYTE      P_SW2
      000000A2H   SFRSYM    DATA     BYTE      P_SW1
      000000CEH   SFRSYM    DATA     BYTE      SPCTL
      000000F8H   SFRSYM    DATA     BYTE      P7
      000000E8H   SFRSYM    DATA     BYTE      P6
      000000C8H   SFRSYM    DATA     BYTE      P5
      000000C0H   SFRSYM    DATA     BYTE      P4
      000000B0H   SFRSYM    DATA     BYTE      P3
      000000A0H   SFRSYM    DATA     BYTE      P2
      00000090H   SFRSYM    DATA     BYTE      P1
      00000080H   SFRSYM    DATA     BYTE      P0

      00FF072EH   BLOCK     CODE     ---       LVL=0
      00FF072EH   LINE      ---      ---       #24
      00FF0732H   LINE      ---      ---       #26
      00FF0734H   LINE      ---      ---       #27
      00FF0736H   LINE      ---      ---       #28
      R15         REGSYM    ---      CHAR      c
      ---         BLOCKEND  ---      ---       LVL=0

      ---         MODULE    ---      ---       main
      00FF0760H   PUBLIC    CODE     ---       vSystemInit?_
      00FF0750H   PUBLIC    CODE     ---       main
      00000094H   SFRSYM    DATA     BYTE      P0M0
      000000D0H   SFRSYM    DATA     BYTE      PSW
      000000BAH.7 SFRSYM    DATA     BIT       EAXFR
      0000009DH   SFRSYM    DATA     BYTE      IRCBAND
      00000097H   SFRSYM    DATA     BYTE      AUXR2
      000000EAH   SFRSYM    DATA     BYTE      CKCON
      000000EFH   SFRSYM    DATA     BYTE      AUXINTIF
L251 LINKER/LOCATER V4.66.93.0                                                        09/21/2022  15:24:00  PAGE 38


      000000FDH   SFRSYM    DATA     BYTE      S4CON
      000000ACH   SFRSYM    DATA     BYTE      S3CON
      0000009AH   SFRSYM    DATA     BYTE      S2CON
      000000B7H   SFRSYM    DATA     BYTE      IPH
      000000CDH   SFRSYM    DATA     BYTE      SPSTAT
      000000DDH   SFRSYM    DATA     BYTE      T4T3M
      000000C1H   SFRSYM    DATA     BYTE      WDT_CONTR
      000000E9H   SFRSYM    DATA     BYTE      WTST
      000000DFH   SFRSYM    DATA     BYTE      IP3
      000000F4H   SFRSYM    DATA     BYTE      USBCON
      000000B5H   SFRSYM    DATA     BYTE      IP2
      000000FFH   SFRSYM    DATA     BYTE      RSTCFG
      000000C7H   SFRSYM    DATA     BYTE      IAP_CONTR
      000000F9H   SFRSYM    DATA     BYTE      LINICR
      0000008EH   SFRSYM    DATA     BYTE      AUXR
      000000AFH   SFRSYM    DATA     BYTE      IE2
      00000088H   SFRSYM    DATA     BYTE      TCON
      00000089H   SFRSYM    DATA     BYTE      TMOD
      00000098H   SFRSYM    DATA     BYTE      SCON
      000000F1H   SFRSYM    DATA     BYTE      CANICR
      00000087H   SFRSYM    DATA     BYTE      PCON
      000000BCH   SFRSYM    DATA     BYTE      ADC_CONTR
      000000E7H   SFRSYM    DATA     BYTE      CMPCR2
      000000E6H   SFRSYM    DATA     BYTE      CMPCR1
      000000DEH   SFRSYM    DATA     BYTE      ADCCFG
      000000B8H   SFRSYM    DATA     BYTE      IP
      0000008FH   SFRSYM    DATA     BYTE      INTCLKO
      000000EEH   SFRSYM    DATA     BYTE      IP3H
      000000B6H   SFRSYM    DATA     BYTE      IP2H
      000000A8H   SFRSYM    DATA     BYTE      IE
      000000BBH   SFRSYM    DATA     BYTE      P_SW3
      000000BAH   SFRSYM    DATA     BYTE      P_SW2
      000000A2H   SFRSYM    DATA     BYTE      P_SW1
      000000CEH   SFRSYM    DATA     BYTE      SPCTL
      000000F8H   SFRSYM    DATA     BYTE      P7
      000000E1H   SFRSYM    DATA     BYTE      P7M1
      000000E8H   SFRSYM    DATA     BYTE      P6
      000000C8H   SFRSYM    DATA     BYTE      P5
      000000CBH   SFRSYM    DATA     BYTE      P6M1
      000000E2H   SFRSYM    DATA     BYTE      P7M0
      000000C0H   SFRSYM    DATA     BYTE      P4
      000000C9H   SFRSYM    DATA     BYTE      P5M1
      000000CCH   SFRSYM    DATA     BYTE      P6M0
      000000B0H   SFRSYM    DATA     BYTE      P3
      000000B3H   SFRSYM    DATA     BYTE      P4M1
      000000CAH   SFRSYM    DATA     BYTE      P5M0
      000000A0H   SFRSYM    DATA     BYTE      P2
      000000B1H   SFRSYM    DATA     BYTE      P3M1
      000000B4H   SFRSYM    DATA     BYTE      P4M0
      00000090H   SFRSYM    DATA     BYTE      P1
      00000095H   SFRSYM    DATA     BYTE      P2M1
      000000B2H   SFRSYM    DATA     BYTE      P3M0
      00000080H   SFRSYM    DATA     BYTE      P0
      00000091H   SFRSYM    DATA     BYTE      P1M1
      00000096H   SFRSYM    DATA     BYTE      P2M0
      00000092H   SFRSYM    DATA     BYTE      P1M0
      00000093H   SFRSYM    DATA     BYTE      P0M1

      00FF0750H   BLOCK     CODE     ---       LVL=0
      00FF0750H   LINE      ---      ---       #24
      00FF0750H   LINE      ---      ---       #27
      00FF0752H   LINE      ---      ---       #29
      00FF0754H   LINE      ---      ---       #31
      00FF075EH   LINE      ---      ---       #34
      ---         BLOCKEND  ---      ---       LVL=0
L251 LINKER/LOCATER V4.66.93.0                                                        09/21/2022  15:24:00  PAGE 39



      00FF0760H   BLOCK     CODE     ---       LVL=0
      00FF0760H   LINE      ---      ---       #38
      00FF0760H   LINE      ---      ---       #40
      00FF0763H   LINE      ---      ---       #41
      00FF0766H   LINE      ---      ---       #42
      00FF0769H   LINE      ---      ---       #44
      00FF076FH   LINE      ---      ---       #45
      00FF0775H   LINE      ---      ---       #46
      00FF077BH   LINE      ---      ---       #47
      00FF0781H   LINE      ---      ---       #48
      00FF0787H   LINE      ---      ---       #49
      00FF078DH   LINE      ---      ---       #50
      00FF0793H   LINE      ---      ---       #51
      00FF0799H   LINE      ---      ---       #55
      ---         BLOCKEND  ---      ---       LVL=0

      ---         MODULE    ---      ---       ?C_START
      00FF0000H   PUBLIC    CODE     ---       ?C?STARTUP
      00FF0000H   PUBLIC    CODE     ---       ?C_STARTUP

      ---         MODULE    ---      ---       ?C?INITEDATA
      00FF038BH   PUBLIC    CODE     ---       ?C?INITEDATA

      ---         MODULE    ---      ---       PRINTF
      00000AD2H   PUBLIC    EDATA    ---       ?PRINTF?BYTE
      00FF000EH   PUBLIC    CODE     NEAR LAB  PRINTF

      ---         MODULE    ---      ---       memcpy

      ---         MODULE    ---      ---       memset

      ---         MODULE    ---      ---       ?C?INITEDATA_END
      00FF0415H   PUBLIC    HCONST   WORD      ?C?INITEDATA_END

      ---         MODULE    ---      ---       ?C?PRNFMT
      00FF0067H   PUBLIC    CODE     ---       ?C?PRNFMT

Program Size: data=11.0 edata+hdata=3015 xdata=0 const=112 code=1830
L251 RUN COMPLETE.  0 WARNING(S),  0 ERROR(S)
